(lp0
F41.968
aF15.219
aF15.285
aF19.563
aF29.311
aF10.67
aF17.121
aF12.527
aF30.153
aF17.558
aF12.657
aF2.549
aF22.784
aF10.514
aF12.141
aF17.287
aF52.506
aF13.726
aF9.175
aF14.513
aF61.887
aF12.47
aF22.759
aF22.013
aF13.664
aF15.369
aF15.866
aF14.473
aF12.586
aF21.532
aF13.25
aF14.41
aF12.113
aF24.972
aF57.689
aF26.965
aF33.409
aF8.305
aF27.167
aF13.105
aF14.632
aF15.116
aF22.486
aF10.897
aF10.425
aF34.413
aF14.604
aF15.912
aF10.369
aF13.524
aF10.667
aF21.57
aF10.883
aF8.388
aF54.052
aF23.993
aF2.306
aF11.369
aF8.206
aF34.672
aF13.996
aF10.313
aF12.037
aF12.09
aF23.48
aF16.024
aF20.466
aF10.075
aF13.92
aF14.28
aF12.765
aF9.602
aF13.853
aF8.971
aF14.353
aF9.304
aF49.724
aF14.174
aF4.885
aF10.283
aF44.504
aF12.173
aF13.318
aF13.229
aF14.213
aF20.509
aF13.128
aF15.388
aF7.981
aF11.561
aF10.242
aF15.412
aF9.893
aF14.045
aF7.061
aF13.335
aF24.344
aF69.189
aF15.028
aF9.293
aF9.72
aF17.044
aF45.738
aF15.852
aF6.787
aF9.43
aF9.787
aF13.323
aF7.337
aF12.426
aF9.826
aF4.302
aF9.246
aF13.619
aF12.271
aF12.115
aF5.497
aF8.215
aF7.77
aF31.622
aF22.975
aF8.379
aF6.169
aF7.021
aF31.173
aF16.105
aF21.286
aF9.129
aF13.93
aF12.748
aF13.561
aF13.198
aF13.387
aF9.658
aF12.055
aF11.355
aF32.879
aF19.812
aF15.78
aF28.428
aF16.832
aF6.87
aF6.248
aF6.438
aF6.433
aF12.668
aF16.397
aF10.146
aF16.537
aF17.124
aF15.109
aF11.512
aF22.071
aF14.221
aF7.084
aF3.78
aF13.045
aF21.609
aF11.549
aF12.978
aF7.707
aF11.395
aF50.067
aF3.164
aF15.924
aF12.19
aF11.686
aF27.373
aF14.595
aF10.471
aF19.539
aF16.297
aF16.593
aF8.12
aF15.718
aF23.116
aF11.689
aF12.41
aF38.342
aF13.014
aF7.577
aF17.021
aF26.225
aF27.776
aF16.116
aF15.95
aF10.633
aF14.164
aF15.514
aF13.967
aF11.18
aF11.159
aF15.875
aF3.822
aF3.683
aF9.136
aF8.813
aF12.432
aF14.417
aF15.973
aF12.3
aF14.894
aF21.921
aF13.546
aF18.522
aF12.505
aF7.87
aF33.818
aF15.477
aF13.938
aF9.758
aF14.829
aF16.176
aF27.379
aF12.52
aF15.736
aF14.707
aF13.973
aF14.187
aF10.472
aF11.826
aF50.045
aF15.756
aF6.78
aF12.296
aF14.996
aF10.498
aF60.217
aF47.641
aF13.828
aF12.374
aF2.416
aF46.749
a.