(lp0
S'2014-10-24 09:18:35-2014-10-24 09:41:23'
p1
aS'2014-10-24 09:41:23-2014-10-24 09:41:56'
p2
aS'2014-10-24 09:41:56-2014-10-24 09:42:41'
p3
aS'2014-10-24 09:42:41-2014-10-24 09:43:27'
p4
aS'2014-10-24 09:43:27-2014-10-24 09:43:53'
p5
aS'2014-10-24 09:43:53-2014-10-24 09:44:16'
p6
aS'2014-10-24 09:44:16-2014-10-24 09:47:02'
p7
aS'2014-10-24 09:47:02-2014-10-24 09:47:41'
p8
aS'2014-10-24 09:47:41-2014-10-24 09:48:09'
p9
aS'2014-10-24 09:48:09-2014-10-24 09:51:25'
p10
aS'2014-10-24 09:51:25-2014-10-24 09:54:44'
p11
aS'2014-10-24 09:54:44-2014-10-24 09:56:34'
p12
aS'2014-10-24 09:56:34-2014-10-24 09:56:52'
p13
aS'2014-10-24 09:56:52-2014-10-24 09:57:30'
p14
aS'2014-10-24 09:57:30-2014-10-24 09:57:54'
p15
aS'2014-10-24 09:57:54-2014-10-24 09:59:04'
p16
aS'2014-10-24 09:59:04-2014-10-24 09:59:27'
p17
aS'2014-10-24 09:59:27-2014-10-24 10:01:49'
p18
aS'2014-10-24 10:01:49-2014-10-24 10:02:08'
p19
aS'2014-10-24 10:02:08-2014-10-24 10:03:23'
p20
aS'2014-10-24 10:03:23-2014-10-24 10:03:49'
p21
aS'2014-10-24 10:03:49-2014-10-24 10:15:16'
p22
aS'2014-10-24 10:15:16-2014-10-24 10:15:45'
p23
aS'2014-10-24 10:15:45-2014-10-24 10:16:08'
p24
aS'2014-10-24 10:16:08-2014-10-24 10:16:48'
p25
aS'2014-10-24 10:16:48-2014-10-24 10:17:18'
p26
aS'2014-10-24 10:17:18-2014-10-24 10:17:35'
p27
aS'2014-10-24 10:17:35-2014-10-24 10:19:49'
p28
aS'2014-10-24 10:19:49-2014-10-24 10:20:20'
p29
aS'2014-10-24 10:20:20-2014-10-24 10:20:43'
p30
aS'2014-10-24 10:20:43-2014-10-24 10:21:03'
p31
aS'2014-10-24 10:21:03-2014-10-24 10:21:24'
p32
aS'2014-10-24 10:21:24-2014-10-24 10:21:55'
p33
aS'2014-10-24 10:21:55-2014-10-24 10:25:24'
p34
aS'2014-10-24 10:25:24-2014-10-24 10:26:03'
p35
aS'2014-10-24 10:26:03-2014-10-24 10:27:20'
p36
aS'2014-10-24 10:27:20-2014-10-24 10:27:37'
p37
aS'2014-10-24 10:27:37-2014-10-24 10:28:08'
p38
aS'2014-10-24 10:28:08-2014-10-24 10:28:25'
p39
aS'2014-10-24 10:28:25-2014-10-24 10:41:13'
p40
aS'2014-10-24 10:41:13-2014-10-24 10:41:33'
p41
aS'2014-10-24 10:41:33-2014-10-24 10:42:05'
p42
aS'2014-10-24 10:42:05-2014-10-24 10:42:23'
p43
aS'2014-10-24 10:42:23-2014-10-24 10:42:47'
p44
aS'2014-10-24 10:42:47-2014-10-24 10:43:24'
p45
aS'2014-10-24 10:43:24-2014-10-24 10:45:04'
p46
aS'2014-10-24 10:45:04-2014-10-24 10:45:27'
p47
aS'2014-10-24 10:45:27-2014-10-24 10:45:42'
p48
aS'2014-10-24 10:45:42-2014-10-24 10:46:00'
p49
aS'2014-10-24 10:46:00-2014-10-24 10:46:19'
p50
aS'2014-10-24 10:46:19-2014-10-24 10:46:45'
p51
aS'2014-10-24 10:46:45-2014-10-24 10:49:09'
p52
aS'2014-10-24 10:49:09-2014-10-24 10:49:21'
p53
aS'2014-10-24 10:49:21-2014-10-24 10:50:24'
p54
aS'2014-10-24 10:50:24-2014-10-24 10:51:08'
p55
aS'2014-10-24 10:51:08-2014-10-24 10:52:42'
p56
aS'2014-10-24 10:52:42-2014-10-24 10:52:56'
p57
aS'2014-10-24 10:52:56-2014-10-24 10:53:10'
p58
aS'2014-10-24 10:53:10-2014-10-24 10:53:53'
p59
aS'2014-10-24 10:53:53-2014-10-24 10:54:09'
p60
aS'2014-10-24 10:54:09-2014-10-24 11:05:06'
p61
aS'2014-10-24 11:05:06-2014-10-24 11:05:23'
p62
aS'2014-10-24 11:05:23-2014-10-24 11:05:43'
p63
aS'2014-10-24 11:05:43-2014-10-24 11:06:11'
p64
aS'2014-10-24 11:06:11-2014-10-24 11:06:31'
p65
aS'2014-10-24 11:06:31-2014-10-24 11:07:14'
p66
aS'2014-10-24 11:07:14-2014-10-24 11:09:00'
p67
aS'2014-10-24 11:09:00-2014-10-24 11:09:21'
p68
aS'2014-10-24 11:09:21-2014-10-24 11:09:42'
p69
aS'2014-10-24 11:09:42-2014-10-24 11:10:00'
p70
aS'2014-10-24 11:10:00-2014-10-24 11:10:18'
p71
aS'2014-10-24 11:10:18-2014-10-24 11:10:35'
p72
aS'2014-10-24 11:10:35-2014-10-24 11:12:04'
p73
aS'2014-10-24 11:12:04-2014-10-24 11:12:24'
p74
aS'2014-10-24 11:12:24-2014-10-24 11:12:36'
p75
aS'2014-10-24 11:12:36-2014-10-24 11:13:28'
p76
aS'2014-10-24 11:13:28-2014-10-24 11:13:46'
p77
aS'2014-10-24 11:13:46-2014-10-24 11:15:02'
p78
aS'2014-10-24 11:15:02-2014-10-24 11:15:16'
p79
aS'2014-10-24 11:15:16-2014-10-24 11:16:09'
p80
aS'2014-10-24 11:16:09-2014-10-24 11:16:27'
p81
aS'2014-10-24 11:16:27-2014-10-24 11:30:21'
p82
aS'2014-10-24 11:30:21-2014-10-24 11:30:44'
p83
aS'2014-10-24 11:30:44-2014-10-24 11:31:03'
p84
aS'2014-10-24 11:31:03-2014-10-24 11:31:31'
p85
aS'2014-10-24 11:31:31-2014-10-24 11:32:19'
p86
aS'2014-10-24 11:32:19-2014-10-24 11:32:37'
p87
aS'2014-10-24 11:32:37-2014-10-24 11:34:30'
p88
aS'2014-10-24 11:34:30-2014-10-24 11:34:47'
p89
aS'2014-10-24 11:34:47-2014-10-24 11:35:04'
p90
aS'2014-10-24 11:35:04-2014-10-24 11:35:23'
p91
aS'2014-10-24 11:35:23-2014-10-24 11:35:45'
p92
aS'2014-10-24 11:35:45-2014-10-24 11:36:01'
p93
aS'2014-10-24 11:36:01-2014-10-24 11:37:35'
p94
aS'2014-10-24 11:37:35-2014-10-24 11:37:53'
p95
aS'2014-10-24 11:37:53-2014-10-24 11:38:36'
p96
aS'2014-10-24 11:38:36-2014-10-24 11:40:00'
p97
aS'2014-10-24 11:40:00-2014-10-24 11:40:21'
p98
aS'2014-10-24 11:40:21-2014-10-24 11:41:28'
p99
aS'2014-10-24 11:41:28-2014-10-24 11:41:41'
p100
aS'2014-10-24 11:41:41-2014-10-24 11:42:07'
p101
aS'2014-10-24 11:42:07-2014-10-24 11:42:57'
p102
aS'2014-10-24 11:42:57-2014-10-24 11:43:15'
p103
aS'2014-10-24 11:43:15-2014-10-24 11:54:08'
p104
aS'2014-10-24 11:54:08-2014-10-24 11:54:22'
p105
aS'2014-10-24 11:54:22-2014-10-24 11:54:36'
p106
aS'2014-10-24 11:54:36-2014-10-24 11:54:53'
p107
aS'2014-10-24 11:54:53-2014-10-24 11:55:09'
p108
aS'2014-10-24 11:55:09-2014-10-24 11:55:24'
p109
aS'2014-10-24 11:55:24-2014-10-24 11:57:09'
p110
aS'2014-10-24 11:57:09-2014-10-24 11:57:16'
p111
aS'2014-10-24 11:57:16-2014-10-24 11:57:29'
p112
aS'2014-10-24 11:57:29-2014-10-24 11:57:49'
p113
aS'2014-10-24 11:57:49-2014-10-24 11:58:06'
p114
aS'2014-10-24 11:58:06-2014-10-24 11:58:20'
p115
aS'2014-10-24 11:58:20-2014-10-24 12:00:35'
p116
aS'2014-10-24 12:00:35-2014-10-24 12:00:48'
p117
aS'2014-10-24 12:00:48-2014-10-24 12:01:02'
p118
aS'2014-10-24 12:01:02-2014-10-24 12:01:36'
p119
aS'2014-10-24 12:01:36-2014-10-24 12:02:04'
p120
aS'2014-10-24 12:02:04-2014-10-24 12:03:17'
p121
aS'2014-10-24 12:03:17-2014-10-24 12:03:25'
p122
aS'2014-10-24 12:03:25-2014-10-24 12:03:43'
p123
aS'2014-10-24 12:03:43-2014-10-24 12:04:17'
p124
aS'2014-10-24 12:04:17-2014-10-24 12:04:36'
p125
aS'2014-10-24 12:04:36-2014-10-24 12:58:07'
p126
aS'2014-10-24 12:58:07-2014-10-24 12:58:22'
p127
aS'2014-10-24 12:58:22-2014-10-24 12:58:43'
p128
aS'2014-10-24 12:58:43-2014-10-24 12:59:00'
p129
aS'2014-10-24 12:59:00-2014-10-24 12:59:20'
p130
aS'2014-10-24 12:59:20-2014-10-24 12:59:35'
p131
aS'2014-10-24 12:59:35-2014-10-24 13:01:21'
p132
aS'2014-10-24 13:01:21-2014-10-24 13:01:32'
p133
aS'2014-10-24 13:01:32-2014-10-24 13:01:47'
p134
aS'2014-10-24 13:01:47-2014-10-24 13:02:09'
p135
aS'2014-10-24 13:02:09-2014-10-24 13:03:24'
p136
aS'2014-10-24 13:03:24-2014-10-24 13:04:46'
p137
aS'2014-10-24 13:04:46-2014-10-24 13:05:04'
p138
aS'2014-10-24 13:05:04-2014-10-24 13:05:39'
p139
aS'2014-10-24 13:05:39-2014-10-24 13:06:09'
p140
aS'2014-10-24 13:06:09-2014-10-24 13:07:12'
p141
aS'2014-10-24 13:07:12-2014-10-24 13:07:23'
p142
aS'2014-10-24 13:07:23-2014-10-24 13:07:32'
p143
aS'2014-10-24 13:07:32-2014-10-24 13:07:44'
p144
aS'2014-10-24 13:07:44-2014-10-24 13:07:59'
p145
aS'2014-10-24 13:07:59-2014-10-24 13:08:41'
p146
aS'2014-10-24 13:08:41-2014-10-24 13:13:41'
p147
aS'2014-10-24 13:13:41-2014-10-24 13:14:07'
p148
aS'2014-10-24 13:14:07-2014-10-24 13:14:46'
p149
aS'2014-10-24 13:14:46-2014-10-24 13:15:10'
p150
aS'2014-10-24 13:15:10-2014-10-24 13:15:26'
p151
aS'2014-10-24 13:15:26-2014-10-24 13:15:55'
p152
aS'2014-10-24 13:15:55-2014-10-24 13:17:09'
p153
aS'2014-10-24 13:17:09-2014-10-24 13:17:18'
p154
aS'2014-10-24 13:17:18-2014-10-24 13:18:01'
p155
aS'2014-10-24 13:18:01-2014-10-24 13:18:46'
p156
aS'2014-10-24 13:18:46-2014-10-24 13:19:46'
p157
aS'2014-10-24 13:19:46-2014-10-24 13:20:15'
p158
aS'2014-10-24 13:20:15-2014-10-24 13:21:56'
p159
aS'2014-10-24 13:21:56-2014-10-24 13:22:06'
p160
aS'2014-10-24 13:22:06-2014-10-24 13:22:23'
p161
aS'2014-10-24 13:22:23-2014-10-24 13:23:15'
p162
aS'2014-10-24 13:23:15-2014-10-24 13:23:20'
p163
aS'2014-10-24 13:23:20-2014-10-24 13:24:51'
p164
aS'2014-10-24 13:24:51-2014-10-24 13:25:05'
p165
aS'2014-10-24 13:25:05-2014-10-24 13:25:23'
p166
aS'2014-10-24 13:25:23-2014-10-24 13:25:53'
p167
aS'2014-10-24 13:25:53-2014-10-24 13:26:12'
p168
aS'2014-10-24 13:26:12-2014-10-24 13:33:02'
p169
aS'2014-10-24 13:33:02-2014-10-24 13:33:47'
p170
aS'2014-10-24 13:33:47-2014-10-24 13:34:06'
p171
aS'2014-10-24 13:34:06-2014-10-24 13:34:29'
p172
aS'2014-10-24 13:34:29-2014-10-24 13:34:41'
p173
aS'2014-10-24 13:34:41-2014-10-24 13:35:04'
p174
aS'2014-10-24 13:35:04-2014-10-24 13:36:49'
p175
aS'2014-10-24 13:36:49-2014-10-24 13:37:11'
p176
aS'2014-10-24 13:37:11-2014-10-24 13:37:30'
p177
aS'2014-10-24 13:37:30-2014-10-24 13:38:28'
p178
aS'2014-10-24 13:38:28-2014-10-24 13:40:40'
p179
aS'2014-10-24 13:40:40-2014-10-24 13:40:50'
p180
aS'2014-10-24 13:40:50-2014-10-24 13:41:12'
p181
aS'2014-10-24 13:41:12-2014-10-24 13:41:41'
p182
aS'2014-10-24 13:41:41-2014-10-24 13:42:31'
p183
aS'2014-10-24 13:42:31-2014-10-24 13:43:03'
p184
aS'2014-10-24 13:43:03-2014-10-24 13:44:13'
p185
aS'2014-10-24 13:44:13-2014-10-24 13:44:31'
p186
aS'2014-10-24 13:44:31-2014-10-24 13:44:48'
p187
aS'2014-10-24 13:44:48-2014-10-24 13:45:07'
p188
aS'2014-10-24 13:45:07-2014-10-24 13:45:30'
p189
aS'2014-10-24 13:45:30-2014-10-24 13:51:56'
p190
aS'2014-10-24 13:51:56-2014-10-24 13:52:13'
p191
aS'2014-10-24 13:52:13-2014-10-24 13:52:32'
p192
aS'2014-10-24 13:52:32-2014-10-24 13:53:14'
p193
aS'2014-10-24 13:53:14-2014-10-24 13:53:20'
p194
aS'2014-10-24 13:53:20-2014-10-24 13:53:31'
p195
aS'2014-10-24 13:53:31-2014-10-24 13:53:49'
p196
aS'2014-10-24 13:53:49-2014-10-24 13:55:25'
p197
aS'2014-10-24 13:55:25-2014-10-24 13:55:41'
p198
aS'2014-10-24 13:55:41-2014-10-24 13:56:01'
p199
aS'2014-10-24 13:56:01-2014-10-24 13:56:17'
p200
aS'2014-10-24 13:56:17-2014-10-24 13:56:38'
p201
aS'2014-10-24 13:56:38-2014-10-24 13:57:11'
p202
aS'2014-10-24 13:57:11-2014-10-24 13:57:27'
p203
aS'2014-10-24 13:57:27-2014-10-24 13:59:18'
p204
aS'2014-10-24 13:59:18-2014-10-24 13:59:33'
p205
aS'2014-10-24 13:59:33-2014-10-24 13:59:45'
p206
aS'2014-10-24 13:59:45-2014-10-24 14:00:22'
p207
aS'2014-10-24 14:00:22-2014-10-24 14:00:40'
p208
aS'2014-10-24 14:00:40-2014-10-24 14:01:44'
p209
aS'2014-10-24 14:01:44-2014-10-24 14:01:57'
p210
aS'2014-10-24 14:01:57-2014-10-24 14:02:15'
p211
aS'2014-10-24 14:02:15-2014-10-24 14:02:33'
p212
aS'2014-10-24 14:02:33-2014-10-24 14:03:11'
p213
aS'2014-10-24 14:03:11-2014-10-24 14:14:26'
p214
aS'2014-10-24 14:14:26-2014-10-24 14:14:52'
p215
aS'2014-10-24 14:14:52-2014-10-24 14:15:12'
p216
aS'2014-10-24 14:15:12-2014-10-24 14:15:36'
p217
aS'2014-10-24 14:15:36-2014-10-24 14:16:01'
p218
aS'2014-10-24 14:16:01-2014-10-24 14:16:13'
p219
aS'2014-10-24 14:16:13-2014-10-24 14:17:29'
p220
aS'2014-10-24 14:17:29-2014-10-24 14:18:22'
p221
aS'2014-10-24 14:18:22-2014-10-24 14:18:41'
p222
aS'2014-10-24 14:18:41-2014-10-24 14:18:50'
p223
aS'2014-10-24 14:18:50-2014-10-24 14:19:06'
p224
aS'2014-10-24 14:19:06-2014-10-24 14:20:16'
p225
aS'2014-10-24 14:20:16-2014-10-24 14:20:28'
p226
aS'2014-10-24 14:20:28-2014-10-24 14:21:35'
p227
aS'2014-10-24 14:21:35-2014-10-24 14:22:42'
p228
aS'2014-10-24 14:22:42-2014-10-24 14:23:06'
p229
aS'2014-10-24 14:23:06-2014-10-24 14:24:09'
p230
aS'2014-10-24 14:24:09-2014-10-24 14:24:35'
p231
aS'2014-10-24 14:24:35-2014-10-24 14:25:27'
p232
a.