(lp0
F41.968
aF15.219
aF15.285
aF19.563
aF29.311
aF10.67
aF17.121
aF12.527
aF21.043
aF7.756
aF17.558
aF12.657
aF2.549
aF22.784
aF10.514
aF12.141
aF9.943
aF5.359
aF52.506
aF13.726
aF9.175
aF14.513
aF10.298
aF49.67
aF12.47
aF22.759
aF22.013
aF13.664
aF15.369
aF15.866
aF14.473
aF12.586
aF21.532
aF13.25
aF14.41
aF12.113
aF24.972
aF3.511
aF0.61
aF50.095
aF26.965
aF20.287
aF11.448
aF8.305
aF24.762
aF1.35
aF13.105
aF14.632
aF15.116
aF22.486
aF10.897
aF10.425
aF14.81
aF12.64
aF3.148
aF14.604
aF15.912
aF10.369
aF13.524
aF10.667
aF17.589
aF2.915
aF4.872
aF4.997
aF8.388
aF9.315
aF0.0
aF9.476
aF31.445
aF23.993
aF2.306
aF11.369
aF8.206
aF34.672
aF10.779
aF2.097
aF10.313
aF12.037
aF12.09
aF23.48
aF16.024
aF20.466
aF10.075
aF13.92
aF10.119
aF3.075
aF12.765
aF9.602
aF13.853
aF8.971
aF14.353
aF9.304
aF49.724
aF14.174
aF4.885
aF10.283
aF12.517
aF30.328
aF12.173
aF13.318
aF13.229
aF14.213
aF20.509
aF13.128
aF15.388
aF7.981
aF11.561
aF10.242
aF15.412
aF9.893
aF14.045
aF7.061
aF13.335
aF24.344
aF69.189
aF15.028
aF9.293
aF9.72
aF17.044
aF45.738
aF15.852
aF6.787
aF9.43
aF9.787
aF13.323
aF7.337
aF12.426
aF6.627
aF2.188
aF4.302
aF6.383
aF1.84
aF13.619
aF12.271
aF12.115
aF5.497
aF8.215
aF7.77
aF31.622
aF22.975
aF8.379
aF6.169
aF7.021
aF31.173
aF16.105
aF3.346
aF10.574
aF4.507
aF7.015
aF0.931
aF13.93
aF12.748
aF13.561
aF13.198
aF13.387
aF9.658
aF12.055
aF11.355
aF16.659
aF14.369
aF4.792
aF13.202
aF5.42
aF8.51
aF7.155
aF19.909
aF16.832
aF6.87
aF6.248
aF6.438
aF6.433
aF12.668
aF16.397
aF10.146
aF16.537
aF0.799
aF1.619
aF12.222
aF13.938
aF0.0
aF9.862
aF0.567
aF20.601
aF0.455
aF14.221
aF7.084
aF3.78
aF12.028
aF0.0
aF9.943
aF9.683
aF11.549
aF12.978
aF7.707
aF11.395
aF50.067
aF3.164
aF15.924
aF12.19
aF9.66
aF0.967
aF3.161
aF21.074
aF0.076
aF14.595
aF10.471
aF12.438
aF3.792
aF0.119
aF16.297
aF16.593
aF8.12
aF15.718
aF13.039
aF7.412
aF0.479
aF11.689
aF12.41
aF14.312
aF22.926
aF7.889
aF3.998
aF7.577
aF17.021
aF5.865
aF0.793
aF0.71
aF14.264
aF0.049
aF27.776
aF16.116
aF15.95
aF10.633
aF9.558
aF3.544
aF15.514
aF12.278
aF0.631
aF11.18
aF11.159
aF15.875
aF3.822
aF3.683
aF0.692
aF7.354
aF7.743
aF0.0
aF12.432
aF14.417
aF15.973
aF12.3
aF12.424
aF1.413
aF21.921
aF12.373
aF0.0
aF2.738
aF14.659
aF12.505
aF7.87
aF33.818
aF15.477
aF13.938
aF0.809
aF7.623
aF14.829
aF0.344
aF14.764
aF27.379
aF12.52
aF12.575
aF2.14
aF14.707
aF13.973
aF14.187
aF10.472
aF11.826
aF19.194
aF13.245
aF14.497
aF0.669
aF12.305
aF0.572
aF4.604
aF0.983
aF12.296
aF14.996
aF10.498
aF2.873
aF56.09
aF4.768
aF41.852
aF13.828
aF12.374
aF2.416
aF13.303
aF31.747
aF12.726
a.