(dp0
S'winLen'
p1
(lp2
I1000
aI1500
aI2000
aI2500
aI3000
aI3500
aI4000
aI4500
aI5000
aI1000
aI1500
aI2000
aI2500
aI3000
aI3500
aI4000
aI4500
aI5000
aI1000
aI1500
aI2000
aI2500
aI3000
aI3500
aI4000
aI4500
aI5000
aI1000
aI1500
aI2000
aI2500
aI3000
aI3500
aI4000
aI4500
aI5000
asS'data'
p3
(lp4
(lp5
(lp6
F0.7683352735739232
aF0.761570827489481
aF0.8013698630136986
aF0.9493006993006993
aF0.4076655052264808
aF0.8451361867704279
aF0.5404157043879908
aL572L
aL287L
aS'classifier'
p7
aI1000
aI10
aa(lp8
F0.6856435643564357
aF0.6817447495961227
aF0.6984126984126984
aF0.8810020876826722
aF0.4012158054711246
aF0.7686703096539161
aF0.5096525096525096
aL479L
aL329L
ag7
aI1000
aI10
aa(lp9
F0.6221009549795361
aF0.6404761904761904
aF0.597444089456869
aF0.6810126582278481
aF0.5532544378698225
aF0.660122699386503
aF0.5745007680491552
aL395L
aL338L
ag7
aI1000
aI10
aa(lp10
F0.6349206349206349
aF0.6388888888888888
aF0.6283524904214559
aF0.739946380697051
aF0.5125
aF0.6857142857142857
aF0.5645438898450946
aL373L
aL320L
ag7
aI1000
aI10
aa(lp11
F0.6131301289566237
aF0.6123595505617978
aF0.6144200626959248
aF0.7266666666666667
aF0.48635235732009924
aF0.6646341463414633
aF0.5429362880886427
aL450L
aL403L
ag7
aI1000
aI10
aaa(lp12
(lp13
F0.7659574468085106
aF0.7646176911544228
aF0.7727272727272727
aF0.9444444444444444
aF0.3938223938223938
aF0.8450704225352114
aF0.5217391304347827
aL540L
aL259L
ag7
aI1500
aI10
aa(lp14
F0.7057256990679095
aF0.7039007092198581
aF0.7112299465240641
aF0.8802660753880266
aF0.44333333333333336
aF0.7822660098522168
aF0.5462012320328542
aL451L
aL300L
ag7
aI1500
aI10
aa(lp15
F0.6240713224368499
aF0.651685393258427
aF0.5930599369085173
aF0.6426592797783933
aF0.6025641025641025
aF0.6471408647140865
aF0.5977742448330683
aL361L
aL312L
ag7
aI1500
aI10
aa(lp16
F0.6327503974562798
aF0.643979057591623
aF0.6153846153846154
aF0.7214076246334311
aF0.5277777777777778
aF0.6804979253112032
aF0.5682242990654206
aL341L
aL288L
ag7
aI1500
aI10
aa(lp17
F0.61375
aF0.6101010101010101
aF0.6196721311475409
aF0.722488038277512
aF0.49476439790575916
aF0.6615553121577218
aF0.5502183406113537
aL418L
aL382L
ag7
aI1500
aI10
aaa(lp18
(lp19
F0.7708049113233287
aF0.7759472817133443
aF0.746031746031746
aF0.9363817097415507
aF0.40869565217391307
aF0.8486486486486486
aF0.5280898876404495
aL503L
aL230L
ag7
aI2000
aI10
aa(lp20
F0.6771879483500718
aF0.6883365200764818
aF0.6436781609195402
aF0.8530805687203792
aF0.4072727272727273
aF0.761904761904762
aF0.4988864142538975
aL422L
aL275L
ag7
aI2000
aI10
aa(lp21
F0.6061588330632091
aF0.6455696202531646
aF0.5647840531561462
aF0.608955223880597
aF0.6028368794326241
aF0.6267281105990783
aF0.5831903945111492
aL335L
aL282L
ag7
aI2000
aI10
aa(lp22
F0.6172839506172839
aF0.6185567010309279
aF0.6145251396648045
aF0.7766990291262136
aF0.4263565891472868
aF0.6886657101865136
aF0.5034324942791761
aL309L
aL258L
ag7
aI2000
aI10
aa(lp23
F0.5932432432432433
aF0.5930735930735931
aF0.5935251798561151
aF0.7080103359173127
aF0.46742209631728043
aF0.6454652532391049
aF0.5229793977812995
aL387L
aL353L
ag7
aI2000
aI10
aaa(lp24
(lp25
F0.7646176911544228
aF0.7950664136622391
aF0.65
aF0.8952991452991453
aF0.457286432160804
aF0.8422110552763818
aF0.5368731563421828
aL468L
aL199L
ag7
aI2500
aI10
aa(lp26
F0.6782884310618067
aF0.6939203354297694
aF0.6298701298701299
aF0.8530927835051546
aF0.3991769547325103
aF0.7653179190751446
aF0.48866498740554154
aL388L
aL243L
ag7
aI2500
aI10
aa(lp27
F0.6039426523297491
aF0.6458333333333334
aF0.5592592592592592
aF0.6098360655737705
aF0.5968379446640316
aF0.6273187183811129
aF0.5774378585086042
aL305L
aL253L
ag7
aI2500
aI10
aa(lp28
F0.6066536203522505
aF0.6242038216560509
aF0.5786802030456852
aF0.7025089605734767
aF0.49137931034482757
aF0.6610455311973019
aF0.5314685314685315
aL279L
aL232L
ag7
aI2500
aI10
aa(lp29
F0.623546511627907
aF0.6125290023201856
aF0.642023346303502
aF0.7415730337078652
aF0.49698795180722893
aF0.6709021601016517
aF0.5602716468590832
aL356L
aL332L
ag7
aI2500
aI10
aaa(lp30
(lp31
F0.7846655791190864
aF0.8148148148148148
aF0.6692913385826772
aF0.9041095890410958
aF0.4857142857142857
aF0.8571428571428571
aF0.5629139072847683
aL438L
aL175L
ag7
aI3000
aI10
aa(lp32
F0.67008547008547
aF0.7014218009478673
aF0.588957055214724
aF0.8154269972451791
aF0.43243243243243246
aF0.7541401273885352
aF0.49870129870129865
aL363L
aL222L
ag7
aI3000
aI10
aa(lp33
F0.5951903807615231
aF0.6518218623481782
aF0.5396825396825397
aF0.5812274368231047
aF0.6126126126126126
aF0.6145038167938932
aF0.5738396624472574
aL277L
aL222L
ag7
aI3000
aI10
aa(lp34
F0.6004415011037527
aF0.6163934426229508
aF0.5675675675675675
aF0.746031746031746
aF0.417910447761194
aF0.6750448833034112
aF0.4813753581661891
aL252L
aL201L
ag7
aI3000
aI10
aa(lp35
F0.6188197767145136
aF0.608
aF0.6349206349206349
aF0.7125
aF0.5211726384364821
aF0.6561151079136691
aF0.5724508050089445
aL320L
aL307L
ag7
aI3000
aI10
aaa(lp36
(lp37
F0.7629233511586453
aF0.8207547169811321
aF0.583941605839416
aF0.8592592592592593
aF0.5128205128205128
aF0.83956574185766
aF0.5460750853242321
aL405L
aL156L
ag7
aI3500
aI10
aa(lp38
F0.6691871455576559
aF0.6965174129353234
aF0.5826771653543307
aF0.8408408408408409
aF0.37755102040816324
aF0.7619047619047619
aF0.45820433436532504
aL333L
aL196L
ag7
aI3500
aI10
aa(lp39
F0.5666666666666667
aF0.6255707762557078
aF0.5108225108225108
aF0.548
aF0.59
aF0.5842217484008528
aF0.5475638051044083
aL250L
aL200L
ag7
aI3500
aI10
aa(lp40
F0.6271604938271605
aF0.6360294117647058
aF0.6090225563909775
aF0.7688888888888888
aF0.45
aF0.6961770623742454
aF0.5175718849840256
aL225L
aL180L
ag7
aI3500
aI10
aa(lp41
F0.5972461273666093
aF0.5895061728395061
aF0.6070038910505836
aF0.6541095890410958
aF0.5397923875432526
aF0.6201298701298702
aF0.5714285714285715
aL292L
aL289L
ag7
aI3500
aI10
aaa(lp42
(lp43
F0.7740667976424361
aF0.8278481012658228
aF0.5877192982456141
aF0.8743315508021391
aF0.4962962962962963
aF0.8504551365409622
aF0.5381526104417671
aL374L
aL135L
ag7
aI4000
aI10
aa(lp44
F0.6821052631578948
aF0.7212643678160919
aF0.5748031496062992
aF0.8229508196721311
aF0.4294117647058823
aF0.7687595712098009
aF0.49158249158249157
aL305L
aL170L
ag7
aI4000
aI10
aa(lp45
F0.5672371638141809
aF0.6268656716417911
aF0.5096153846153846
aF0.5526315789473685
aF0.585635359116022
aF0.5874125874125874
aF0.5449871465295629
aL228L
aL181L
ag7
aI4000
aI10
aa(lp46
F0.5828571428571429
aF0.6143497757847534
aF0.5275590551181102
aF0.6954314720812182
aF0.43790849673202614
aF0.6523809523809524
aF0.47857142857142854
aL197L
aL153L
ag7
aI4000
aI10
aa(lp47
F0.5939849624060151
aF0.5878378378378378
aF0.6016949152542372
aF0.6492537313432836
aF0.5378787878787878
aF0.6170212765957448
aF0.568
aL268L
aL264L
ag7
aI4000
aI10
aaa(lp48
(lp49
F0.8065934065934066
aF0.8415300546448088
aF0.6629213483146067
aF0.9112426035502958
aF0.5042735042735043
aF0.875
aF0.5728155339805824
aL338L
aL117L
ag7
aI4500
aI10
aa(lp50
F0.6799065420560748
aF0.7322580645161291
aF0.5423728813559322
aF0.8078291814946619
aF0.43537414965986393
aF0.7681895093062605
aF0.48301886792452836
aL281L
aL147L
ag7
aI4500
aI10
aa(lp51
F0.6111111111111112
aF0.6724137931034483
aF0.553763440860215
aF0.585
aF0.64375
aF0.6256684491978609
aF0.5953757225433526
aL200L
aL160L
ag7
aI4500
aI10
aa(lp52
F0.6078431372549019
aF0.6320754716981132
aF0.5531914893617021
aF0.7613636363636364
aF0.4
aF0.6907216494845361
aF0.4642857142857143
aL176L
aL130L
ag7
aI4500
aI10
aa(lp53
F0.5995762711864406
aF0.5930232558139535
aF0.6074766355140186
aF0.6455696202531646
aF0.5531914893617021
aF0.6181818181818183
aF0.579064587973274
aL237L
aL235L
ag7
aI4500
aI10
aaa(lp54
(lp55
F0.8208955223880597
aF0.8782051282051282
aF0.6222222222222222
aF0.8896103896103896
aF0.5957446808510638
aF0.8838709677419355
aF0.608695652173913
aL308L
aL94L
ag7
aI5000
aI10
aa(lp56
F0.6884816753926701
aF0.7455197132616488
aF0.5339805825242718
aF0.8125
aF0.4365079365079365
aF0.777570093457944
aF0.48034934497816595
aL256L
aL126L
ag7
aI5000
aI10
aa(lp57
F0.5736677115987461
aF0.6560509554140127
aF0.49382716049382713
aF0.5567567567567567
aF0.5970149253731343
aF0.6023391812865497
aF0.5405405405405405
aL185L
aL134L
ag7
aI5000
aI10
aa(lp58
F0.6142322097378277
aF0.6470588235294118
aF0.5375
aF0.7658227848101266
aF0.3944954128440367
aF0.7014492753623188
aF0.45502645502645506
aL158L
aL109L
ag7
aI5000
aI10
aa(lp59
F0.5730593607305936
aF0.5590551181102362
aF0.592391304347826
aF0.6543778801843319
aF0.49321266968325794
aF0.6029723991507432
aF0.5382716049382715
aL217L
aL221L
ag7
aI5000
aI10
aaa(lp60
(lp61
F0.7511848341232228
aF0.7657657657657657
aF0.6966292134831461
aF0.9042553191489362
aF0.44285714285714284
aF0.8292682926829268
aF0.5414847161572052
aL282L
aL140L
ag7
aI1000
aI20
aa(lp62
F0.6717557251908397
aF0.6948529411764706
aF0.6198347107438017
aF0.8042553191489362
aF0.47468354430379744
aF0.7455621301775148
aF0.5376344086021505
aL235L
aL158L
ag7
aI1000
aI20
aa(lp63
F0.651685393258427
aF0.6683673469387755
aF0.63125
aF0.6894736842105263
aF0.608433734939759
aF0.6787564766839379
aF0.6196319018404908
aL190L
aL166L
ag7
aI1000
aI20
aa(lp64
F0.6516516516516516
aF0.6553398058252428
aF0.6456692913385826
aF0.75
aF0.5359477124183006
aF0.6994818652849742
aF0.5857142857142856
aL180L
aL153L
ag7
aI1000
aI20
aa(lp65
F0.619277108433735
aF0.6205533596837944
aF0.6172839506172839
aF0.7168949771689498
aF0.5102040816326531
aF0.6652542372881356
aF0.558659217877095
aL219L
aL196L
ag7
aI1000
aI20
aaa(lp66
(lp67
F0.7384615384615385
aF0.7554858934169278
aF0.6619718309859155
aF0.909433962264151
aF0.376
aF0.8253424657534247
aF0.4795918367346939
aL265L
aL125L
ag7
aI1500
aI20
aa(lp68
F0.6830601092896175
aF0.696969696969697
aF0.6470588235294118
aF0.8363636363636363
aF0.4520547945205479
aF0.7603305785123968
aF0.5322580645161291
aL220L
aL146L
ag7
aI1500
aI20
aa(lp69
F0.6130030959752322
aF0.654320987654321
aF0.5714285714285714
aF0.6057142857142858
aF0.6216216216216216
aF0.6290801186943621
aF0.5954692556634303
aL175L
aL148L
ag7
aI1500
aI20
aa(lp70
F0.6066666666666667
aF0.6229508196721312
aF0.5811965811965812
aF0.6993865030674846
aF0.49635036496350365
aF0.6589595375722543
aF0.5354330708661418
aL163L
aL137L
ag7
aI1500
aI20
aa(lp71
F0.5822454308093995
aF0.5857740585774058
aF0.5763888888888888
aF0.6965174129353234
aF0.45604395604395603
aF0.6363636363636365
aF0.50920245398773
aL201L
aL182L
ag7
aI1500
aI20
aaa(lp72
(lp73
F0.7617728531855956
aF0.7985347985347986
aF0.6477272727272727
aF0.8755020080321285
aF0.5089285714285714
aF0.8352490421455939
aF0.57
aL249L
aL112L
ag7
aI2000
aI20
aa(lp74
F0.6617647058823529
aF0.6872427983539094
aF0.5979381443298969
aF0.8106796116504854
aF0.43283582089552236
aF0.7438752783964365
aF0.5021645021645021
aL206L
aL134L
ag7
aI2000
aI20
aa(lp75
F0.5939597315436241
aF0.6305732484076433
aF0.5531914893617021
aF0.6111111111111112
aF0.5735294117647058
aF0.6206896551724138
aF0.5631768953068593
aL162L
aL136L
ag7
aI2000
aI20
aa(lp76
F0.6115107913669064
aF0.6206896551724138
aF0.5961538461538461
aF0.72
aF0.484375
aF0.6666666666666666
aF0.5344827586206896
aL150L
aL128L
ag7
aI2000
aI20
aa(lp77
F0.6232686980609419
aF0.6146788990825688
aF0.6363636363636364
aF0.7204301075268817
aF0.52
aF0.6633663366336634
aF0.5723270440251573
aL186L
aL175L
ag7
aI2000
aI20
aaa(lp78
(lp79
F0.7561728395061729
aF0.7937743190661478
aF0.6119402985074627
aF0.8869565217391304
aF0.43617021276595747
aF0.837782340862423
aF0.5093167701863355
aL230L
aL94L
ag7
aI2500
aI20
aa(lp80
F0.6375404530744336
aF0.6711111111111111
aF0.5476190476190477
aF0.798941798941799
aF0.38333333333333336
aF0.7294685990338164
aF0.4509803921568628
aL189L
aL120L
ag7
aI2500
aI20
aa(lp81
F0.5836431226765799
aF0.6363636363636364
aF0.5328467153284672
aF0.5675675675675675
aF0.6033057851239669
aF0.6000000000000001
aF0.565891472868217
aL148L
aL121L
ag7
aI2500
aI20
aa(lp82
F0.6138211382113821
aF0.6344827586206897
aF0.5841584158415841
aF0.6865671641791045
aF0.5267857142857143
aF0.6594982078853046
aF0.5539906103286385
aL134L
aL112L
ag7
aI2500
aI20
aa(lp83
F0.6156156156156156
aF0.6037735849056604
aF0.6363636363636364
aF0.7441860465116279
aF0.4782608695652174
aF0.6666666666666666
aF0.5460992907801419
aL172L
aL161L
ag7
aI2500
aI20
aaa(lp84
(lp85
F0.7651006711409396
aF0.8130434782608695
aF0.6029411764705882
aF0.8738317757009346
aF0.4880952380952381
aF0.8423423423423424
aF0.5394736842105263
aL214L
aL84L
ag7
aI3000
aI20
aa(lp86
F0.676056338028169
aF0.7087378640776699
aF0.5897435897435898
aF0.8202247191011236
aF0.4339622641509434
aF0.7604166666666665
aF0.5
aL178L
aL106L
ag7
aI3000
aI20
aa(lp87
F0.6182572614107884
aF0.6694214876033058
aF0.5666666666666667
aF0.6090225563909775
aF0.6296296296296297
aF0.6377952755905512
aF0.5964912280701755
aL133L
aL108L
ag7
aI3000
aI20
aa(lp88
F0.5318181818181819
aF0.5673758865248227
aF0.46835443037974683
aF0.6557377049180327
aF0.37755102040816324
aF0.6083650190114068
aF0.4180790960451978
aL122L
aL98L
ag7
aI3000
aI20
aa(lp89
F0.6111111111111112
aF0.6121212121212121
aF0.6099290780141844
aF0.6474358974358975
aF0.5733333333333334
aF0.6292834890965732
aF0.5910652920962199
aL156L
aL150L
ag7
aI3000
aI20
aaa(lp90
(lp91
F0.7818181818181819
aF0.8333333333333334
aF0.6153846153846154
aF0.875
aF0.5333333333333333
aF0.8536585365853658
aF0.5714285714285715
aL200L
aL75L
ag7
aI3500
aI20
aa(lp92
F0.6732283464566929
aF0.7025641025641025
aF0.576271186440678
aF0.845679012345679
aF0.3695652173913043
aF0.7675070028011204
aF0.45033112582781454
aL162L
aL92L
ag7
aI3500
aI20
aa(lp93
F0.5391705069124424
aF0.5959595959595959
aF0.4915254237288136
aF0.4957983193277311
aF0.5918367346938775
aF0.5412844036697246
aF0.5370370370370371
aL119L
aL98L
ag7
aI3500
aI20
aa(lp94
F0.5989583333333334
aF0.628099173553719
aF0.5492957746478874
aF0.7037037037037037
aF0.4642857142857143
aF0.6637554585152838
aF0.503225806451613
aL108L
aL84L
ag7
aI3500
aI20
aa(lp95
F0.5795053003533569
aF0.5705128205128205
aF0.5905511811023622
aF0.6312056737588653
aF0.528169014084507
aF0.5993265993265993
aF0.5576208178438662
aL141L
aL142L
ag7
aI3500
aI20
aaa(lp96
(lp97
F0.7613168724279835
aF0.824468085106383
aF0.5454545454545454
aF0.8611111111111112
aF0.47619047619047616
aF0.8423913043478262
aF0.5084745762711864
aL180L
aL63L
ag7
aI4000
aI20
aa(lp98
F0.6739130434782609
aF0.7202380952380952
aF0.5483870967741935
aF0.8120805369127517
aF0.41975308641975306
aF0.7634069400630916
aF0.4755244755244755
aL149L
aL81L
ag7
aI4000
aI20
aa(lp99
F0.5618556701030928
aF0.6288659793814433
aF0.4948453608247423
aF0.5545454545454546
aF0.5714285714285714
aF0.5893719806763285
aF0.5303867403314917
aL110L
aL84L
ag7
aI4000
aI20
aa(lp100
F0.608433734939759
aF0.6504854368932039
aF0.5396825396825397
aF0.6979166666666666
aF0.4857142857142857
aF0.6733668341708543
aF0.5112781954887218
aL96L
aL70L
ag7
aI4000
aI20
aa(lp101
F0.5573122529644269
aF0.5539568345323741
aF0.5614035087719298
aF0.6062992125984252
aF0.5079365079365079
aF0.5789473684210527
aF0.5333333333333333
aL127L
aL126L
ag7
aI4000
aI20
aaa(lp102
(lp103
F0.7990654205607477
aF0.84
aF0.6153846153846154
aF0.9074074074074074
aF0.46153846153846156
aF0.8724035608308606
aF0.5274725274725274
aL162L
aL52L
ag7
aI4500
aI20
aa(lp104
F0.7004830917874396
aF0.7295597484276729
aF0.6041666666666666
aF0.8592592592592593
aF0.4027777777777778
aF0.7891156462585034
aF0.48333333333333334
aL135L
aL72L
ag7
aI4500
aI20
aa(lp105
F0.6242774566473989
aF0.7142857142857143
aF0.5520833333333334
aF0.5612244897959183
aF0.7066666666666667
aF0.6285714285714286
aF0.6198830409356726
aL98L
aL75L
ag7
aI4500
aI20
aa(lp106
F0.6506849315068494
aF0.6923076923076923
aF0.5818181818181818
aF0.7325581395348837
aF0.5333333333333333
aF0.7118644067796609
aF0.5565217391304348
aL86L
aL60L
ag7
aI4500
aI20
aa(lp107
F0.6406926406926406
aF0.6311475409836066
aF0.6513761467889908
aF0.6695652173913044
aF0.6120689655172413
aF0.6497890295358649
aF0.6311111111111111
aL115L
aL116L
ag7
aI4500
aI20
aaa(lp108
(lp109
F0.7731958762886598
aF0.8785714285714286
aF0.5
aF0.82
aF0.6136363636363636
aF0.8482758620689655
aF0.5510204081632653
aL150L
aL44L
ag7
aI5000
aI20
aa(lp110
F0.6574585635359116
aF0.7520661157024794
aF0.4666666666666667
aF0.7398373983739838
aF0.4827586206896552
aF0.7459016393442623
aF0.47457627118644075
aL123L
aL58L
ag7
aI5000
aI20
aa(lp111
F0.5
aF0.573170731707317
aF0.4166666666666667
aF0.5280898876404494
aF0.46153846153846156
aF0.5497076023391814
aF0.43795620437956206
aL89L
aL65L
ag7
aI5000
aI20
aa(lp112
F0.5714285714285714
aF0.6219512195121951
aF0.4772727272727273
aF0.6891891891891891
aF0.40384615384615385
aF0.6538461538461539
aF0.4375
aL74L
aL52L
ag7
aI5000
aI20
aa(lp113
F0.5619047619047619
aF0.5419847328244275
aF0.5949367088607594
aF0.6893203883495146
aF0.4392523364485981
aF0.6068376068376069
aF0.5053763440860214
aL103L
aL107L
ag7
aI5000
aI20
aaa(lp114
(lp115
F0.7106227106227107
aF0.7429906542056075
aF0.5932203389830508
aF0.8688524590163934
aF0.3888888888888889
aF0.8010075566750628
aF0.46979865771812085
aL183L
aL90L
ag7
aI1000
aI30
aa(lp116
F0.6937984496124031
aF0.7
aF0.6764705882352942
aF0.8580645161290322
aF0.44660194174757284
aF0.7710144927536231
aF0.5380116959064328
aL155L
aL103L
ag7
aI1000
aI30
aa(lp117
F0.6266666666666667
aF0.6528925619834711
aF0.5961538461538461
aF0.6528925619834711
aF0.5961538461538461
aF0.6528925619834711
aF0.5961538461538461
aL121L
aL104L
ag7
aI1000
aI30
aa(lp118
F0.5898617511520737
aF0.6119402985074627
aF0.5542168674698795
aF0.6890756302521008
aF0.46938775510204084
aF0.6482213438735178
aF0.5082872928176796
aL119L
aL98L
ag7
aI1000
aI30
aa(lp119
F0.5708955223880597
aF0.5899280575539568
aF0.5503875968992248
aF0.5857142857142857
aF0.5546875
aF0.5878136200716846
aF0.5525291828793774
aL140L
aL128L
ag7
aI1000
aI30
aaa(lp120
(lp121
F0.6626984126984127
aF0.7277486910994765
aF0.45901639344262296
aF0.8081395348837209
aF0.35
aF0.7658402203856749
aF0.3971631205673759
aL172L
aL80L
ag7
aI1500
aI30
aa(lp122
F0.6624472573839663
aF0.6863905325443787
aF0.6029411764705882
aF0.8111888111888111
aF0.43617021276595747
aF0.7435897435897435
aF0.5061728395061729
aL143L
aL94L
ag7
aI1500
aI30
aa(lp123
F0.596244131455399
aF0.6293103448275862
aF0.5567010309278351
aF0.6293103448275862
aF0.5567010309278351
aF0.6293103448275862
aF0.5567010309278351
aL116L
aL97L
ag7
aI1500
aI30
aa(lp124
F0.6217616580310881
aF0.6290322580645161
aF0.6086956521739131
aF0.7428571428571429
aF0.4772727272727273
aF0.6812227074235808
aF0.5350318471337581
aL105L
aL88L
ag7
aI1500
aI30
aa(lp125
F0.5826771653543307
aF0.5894039735099338
aF0.5728155339805825
aF0.6691729323308271
aF0.48760330578512395
aF0.6267605633802817
aF0.5267857142857143
aL133L
aL121L
ag7
aI1500
aI30
aaa(lp126
(lp127
F0.7675438596491229
aF0.7872340425531915
aF0.675
aF0.9192546583850931
aF0.40298507462686567
aF0.8481375358166189
aF0.5046728971962616
aL161L
aL67L
ag7
aI2000
aI30
aa(lp128
F0.6606334841628959
aF0.7103448275862069
aF0.5657894736842105
aF0.7573529411764706
aF0.5058823529411764
aF0.7330960854092526
aF0.5341614906832297
aL136L
aL85L
ag7
aI2000
aI30
aa(lp129
F0.5502645502645502
aF0.5922330097087378
aF0.5
aF0.5865384615384616
aF0.5058823529411764
aF0.5893719806763286
aF0.5029239766081871
aL104L
aL85L
ag7
aI2000
aI30
aa(lp130
F0.6153846153846154
aF0.6306306306306306
aF0.5915492957746479
aF0.7070707070707071
aF0.5060240963855421
aF0.6666666666666667
aF0.5454545454545454
aL99L
aL83L
ag7
aI2000
aI30
aa(lp131
F0.5127118644067796
aF0.5208333333333334
aF0.5
aF0.6198347107438017
aF0.4
aF0.5660377358490566
aF0.4444444444444445
aL121L
aL115L
ag7
aI2000
aI30
aaa(lp132
(lp133
F0.7028301886792453
aF0.7894736842105263
aF0.48333333333333334
aF0.7947019867549668
aF0.47540983606557374
aF0.7920792079207921
aF0.4793388429752066
aL151L
aL61L
ag7
aI2500
aI30
aa(lp134
F0.7178217821782178
aF0.7278911564625851
aF0.6909090909090909
aF0.8629032258064516
aF0.48717948717948717
aF0.7896678966789669
aF0.5714285714285714
aL124L
aL78L
ag7
aI2500
aI30
aa(lp135
F0.6057142857142858
aF0.6626506024096386
aF0.5543478260869565
aF0.5729166666666666
aF0.6455696202531646
aF0.6145251396648044
aF0.5964912280701755
aL96L
aL79L
ag7
aI2500
aI30
aa(lp136
F0.5935483870967742
aF0.65
aF0.5333333333333333
aF0.5977011494252874
aF0.5882352941176471
aF0.6227544910179641
aF0.5594405594405595
aL87L
aL68L
ag7
aI2500
aI30
aa(lp137
F0.5740740740740741
aF0.5703703703703704
aF0.5802469135802469
aF0.6936936936936937
aF0.44761904761904764
aF0.6260162601626017
aF0.5053763440860215
aL111L
aL105L
ag7
aI2500
aI30
aaa(lp138
(lp139
F0.7692307692307693
aF0.8380281690140845
aF0.5849056603773585
aF0.8439716312056738
aF0.5740740740740741
aF0.8409893992932863
aF0.5794392523364486
aL141L
aL54L
ag7
aI3000
aI30
aa(lp140
F0.6813186813186813
aF0.728
aF0.5789473684210527
aF0.7913043478260869
aF0.4925373134328358
aF0.7583333333333333
aF0.532258064516129
aL115L
aL67L
ag7
aI3000
aI30
aa(lp141
F0.5632911392405063
aF0.6091954022988506
aF0.5070422535211268
aF0.6022727272727273
aF0.5142857142857142
aF0.6057142857142858
aF0.5106382978723404
aL88L
aL70L
ag7
aI3000
aI30
aa(lp142
F0.6099290780141844
aF0.6385542168674698
aF0.5689655172413793
aF0.6794871794871795
aF0.5238095238095238
aF0.6583850931677019
aF0.5454545454545455
aL78L
aL63L
ag7
aI3000
aI30
aa(lp143
F0.5505050505050505
aF0.5511811023622047
aF0.5492957746478874
aF0.6862745098039216
aF0.40625
aF0.611353711790393
aF0.46706586826347307
aL102L
aL96L
ag7
aI3000
aI30
aaa(lp144
(lp145
F0.75
aF0.8181818181818182
aF0.5454545454545454
aF0.84375
aF0.5
aF0.8307692307692308
aF0.5217391304347826
aL128L
aL48L
ag7
aI3500
aI30
aa(lp146
F0.6097560975609756
aF0.6724137931034483
aF0.4583333333333333
aF0.75
aF0.36666666666666664
aF0.709090909090909
aF0.4074074074074074
aL104L
aL60L
ag7
aI3500
aI30
aa(lp147
F0.4892086330935252
aF0.5466666666666666
aF0.421875
aF0.5256410256410257
aF0.4426229508196721
aF0.5359477124183005
aF0.432
aL78L
aL61L
ag7
aI3500
aI30
aa(lp148
F0.6083333333333333
aF0.6363636363636364
aF0.5581395348837209
aF0.7205882352941176
aF0.46153846153846156
aF0.6758620689655173
aF0.5052631578947369
aL68L
aL52L
ag7
aI3500
aI30
aa(lp149
F0.601123595505618
aF0.6
aF0.6025641025641025
aF0.6593406593406593
aF0.5402298850574713
aF0.6282722513089005
aF0.5696969696969697
aL91L
aL87L
ag7
aI3500
aI30
aaa(lp150
(lp151
F0.75
aF0.8145161290322581
aF0.5277777777777778
aF0.8559322033898306
aF0.4523809523809524
aF0.8347107438016529
aF0.4871794871794871
aL118L
aL42L
ag7
aI4000
aI30
aa(lp152
F0.6133333333333333
aF0.693069306930693
aF0.4489795918367347
aF0.7216494845360825
aF0.41509433962264153
aF0.7070707070707072
aF0.43137254901960786
aL97L
aL53L
ag7
aI4000
aI30
aa(lp153
F0.546875
aF0.6271186440677966
aF0.4782608695652174
aF0.5068493150684932
aF0.6
aF0.5606060606060607
aF0.532258064516129
aL73L
aL55L
ag7
aI4000
aI30
aa(lp154
F0.6190476190476191
aF0.6615384615384615
aF0.55
aF0.7049180327868853
aF0.5
aF0.6825396825396826
aF0.5238095238095238
aL61L
aL44L
ag7
aI4000
aI30
aa(lp155
F0.5304878048780488
aF0.5232558139534884
aF0.5384615384615384
aF0.5555555555555556
aF0.5060240963855421
aF0.5389221556886228
aF0.5217391304347826
aL81L
aL83L
ag7
aI4000
aI30
aaa(lp156
(lp157
F0.7730496453900709
aF0.8518518518518519
aF0.5151515151515151
aF0.8518518518518519
aF0.5151515151515151
aF0.8518518518518519
aF0.5151515151515151
aL108L
aL33L
ag7
aI4500
aI30
aa(lp158
F0.6444444444444445
aF0.7560975609756098
aF0.4716981132075472
aF0.6888888888888889
aF0.5555555555555556
aF0.7209302325581395
aF0.5102040816326532
aL90L
aL45L
ag7
aI4500
aI30
aa(lp159
F0.49074074074074076
aF0.5660377358490566
aF0.41818181818181815
aF0.4838709677419355
aF0.5
aF0.5217391304347827
aF0.4554455445544554
aL62L
aL46L
ag7
aI4500
aI30
aa(lp160
F0.5591397849462365
aF0.6181818181818182
aF0.47368421052631576
aF0.6296296296296297
aF0.46153846153846156
aF0.6238532110091743
aF0.4675324675324675
aL54L
aL39L
ag7
aI4500
aI30
aa(lp161
F0.6148648648648649
aF0.6125
aF0.6176470588235294
aF0.6533333333333333
aF0.5753424657534246
aF0.632258064516129
aF0.5957446808510637
aL75L
aL73L
ag7
aI4500
aI30
aaa(lp162
(lp163
F0.7559055118110236
aF0.8383838383838383
aF0.4642857142857143
aF0.8469387755102041
aF0.4482758620689655
aF0.8426395939086294
aF0.456140350877193
aL98L
aL29L
ag7
aI5000
aI30
aa(lp164
F0.6810344827586207
aF0.7945205479452054
aF0.4883720930232558
aF0.725
aF0.5833333333333334
aF0.7581699346405228
aF0.5316455696202531
aL80L
aL36L
ag7
aI5000
aI30
aa(lp165
F0.5306122448979592
aF0.5964912280701754
aF0.43902439024390244
aF0.5964912280701754
aF0.43902439024390244
aF0.5964912280701754
aF0.43902439024390244
aL57L
aL41L
ag7
aI5000
aI30
aa(lp166
F0.5
aF0.58
aF0.36666666666666664
aF0.6041666666666666
aF0.34375
aF0.5918367346938774
aF0.3548387096774193
aL48L
aL32L
ag7
aI5000
aI30
aa(lp167
F0.5073529411764706
aF0.4931506849315068
aF0.5238095238095238
aF0.5454545454545454
aF0.4714285714285714
aF0.5179856115107914
aF0.4962406015037594
aL66L
aL70L
ag7
aI5000
aI30
aaa(lp168
(lp169
F0.6584158415841584
aF0.7297297297297297
aF0.46296296296296297
aF0.7883211678832117
aF0.38461538461538464
aF0.7578947368421053
aF0.4201680672268908
aL137L
aL65L
ag7
aI1000
aI40
aa(lp170
F0.6521739130434783
aF0.6825396825396826
aF0.5862068965517241
aF0.7818181818181819
aF0.4594594594594595
aF0.7288135593220338
aF0.5151515151515151
aL110L
aL74L
ag7
aI1000
aI40
aa(lp171
F0.5892857142857143
aF0.5981308411214953
aF0.5737704918032787
aF0.7111111111111111
aF0.44871794871794873
aF0.6497461928934011
aF0.5035971223021583
aL90L
aL78L
ag7
aI1000
aI40
aa(lp172
F0.5732484076433121
aF0.6
aF0.5416666666666666
aF0.6071428571428571
aF0.5342465753424658
aF0.6035502958579881
aF0.5379310344827586
aL84L
aL73L
ag7
aI1000
aI40
aa(lp173
F0.5794871794871795
aF0.5982142857142857
aF0.5542168674698795
aF0.6442307692307693
aF0.5054945054945055
aF0.6203703703703703
aF0.5287356321839081
aL104L
aL91L
ag7
aI1000
aI40
aaa(lp174
(lp175
F0.6923076923076923
aF0.7593984962406015
aF0.5102040816326531
aF0.808
aF0.43859649122807015
aF0.7829457364341085
aF0.4716981132075472
aL125L
aL57L
ag7
aI1500
aI40
aa(lp176
F0.6571428571428571
aF0.6982758620689655
aF0.576271186440678
aF0.7641509433962265
aF0.4927536231884058
aF0.7297297297297297
aF0.53125
aL106L
aL69L
ag7
aI1500
aI40
aa(lp177
F0.6298701298701299
aF0.675
aF0.581081081081081
aF0.6352941176470588
aF0.6231884057971014
aF0.6545454545454545
aF0.6013986013986014
aL85L
aL69L
ag7
aI1500
aI40
aa(lp178
F0.5857142857142857
aF0.6103896103896104
aF0.5555555555555556
aF0.6266666666666667
aF0.5384615384615384
aF0.618421052631579
aF0.5468749999999999
aL75L
aL65L
ag7
aI1500
aI40
aa(lp179
F0.5760869565217391
aF0.5794392523364486
aF0.5714285714285714
aF0.6526315789473685
aF0.4943820224719101
aF0.6138613861386139
aF0.5301204819277108
aL95L
aL89L
ag7
aI1500
aI40
aaa(lp180
(lp181
F0.7041420118343196
aF0.822429906542056
aF0.5
aF0.7394957983193278
aF0.62
aF0.7787610619469026
aF0.5535714285714285
aL119L
aL50L
ag7
aI2000
aI40
aa(lp182
F0.68125
aF0.7155963302752294
aF0.6078431372549019
aF0.7959183673469388
aF0.5
aF0.7536231884057972
aF0.5486725663716814
aL98L
aL62L
ag7
aI2000
aI40
aa(lp183
F0.5259259259259259
aF0.5641025641025641
aF0.47368421052631576
aF0.5945945945945946
aF0.4426229508196721
aF0.5789473684210528
aF0.4576271186440678
aL74L
aL61L
ag7
aI2000
aI40
aa(lp184
F0.6259541984732825
aF0.65
aF0.5882352941176471
aF0.7123287671232876
aF0.5172413793103449
aF0.6797385620915032
aF0.5504587155963303
aL73L
aL58L
ag7
aI2000
aI40
aa(lp185
F0.5290697674418605
aF0.5377358490566038
aF0.5151515151515151
aF0.6404494382022472
aF0.40963855421686746
aF0.5846153846153846
aF0.4563758389261745
aL89L
aL83L
ag7
aI2000
aI40
aaa(lp186
(lp187
F0.7243589743589743
aF0.8035714285714286
aF0.5227272727272727
aF0.8108108108108109
aF0.5111111111111111
aF0.8071748878923768
aF0.5168539325842696
aL111L
aL45L
ag7
aI2500
aI40
aa(lp188
F0.6164383561643836
aF0.68
aF0.4782608695652174
aF0.7391304347826086
aF0.4074074074074074
aF0.7083333333333334
aF0.44000000000000006
aL92L
aL54L
ag7
aI2500
aI40
aa(lp189
F0.6428571428571429
aF0.6935483870967742
aF0.59375
aF0.6231884057971014
aF0.6666666666666666
aF0.6564885496183207
aF0.628099173553719
aL69L
aL57L
ag7
aI2500
aI40
aa(lp190
F0.5964912280701754
aF0.6285714285714286
aF0.5454545454545454
aF0.6875
aF0.48
aF0.6567164179104478
aF0.5106382978723404
aL64L
aL50L
ag7
aI2500
aI40
aa(lp191
F0.5987261146496815
aF0.5925925925925926
aF0.6122448979591837
aF0.7710843373493976
aF0.40540540540540543
aF0.6701570680628272
aF0.4878048780487805
aL83L
aL74L
ag7
aI2500
aI40
aaa(lp192
(lp193
F0.7291666666666666
aF0.7857142857142857
aF0.53125
aF0.8543689320388349
aF0.4146341463414634
aF0.8186046511627907
aF0.4657534246575343
aL103L
aL41L
ag7
aI3000
aI40
aa(lp194
F0.6240601503759399
aF0.7160493827160493
aF0.4807692307692308
aF0.6823529411764706
aF0.5208333333333334
aF0.6987951807228916
aF0.5
aL85L
aL48L
ag7
aI3000
aI40
aa(lp195
F0.6293103448275862
aF0.671875
aF0.5769230769230769
aF0.6615384615384615
aF0.5882352941176471
aF0.6666666666666667
aF0.5825242718446602
aL65L
aL51L
ag7
aI3000
aI40
aa(lp196
F0.5816326530612245
aF0.6271186440677966
aF0.5128205128205128
aF0.6607142857142857
aF0.47619047619047616
aF0.6434782608695652
aF0.49382716049382713
aL56L
aL42L
ag7
aI3000
aI40
aa(lp197
F0.5416666666666666
aF0.55
aF0.53125
aF0.5945945945945946
aF0.4857142857142857
aF0.5714285714285715
aF0.5074626865671641
aL74L
aL70L
ag7
aI3000
aI40
aaa(lp198
(lp199
F0.6821705426356589
aF0.8021978021978022
aF0.39473684210526316
aF0.7604166666666666
aF0.45454545454545453
aF0.7807486631016043
aF0.4225352112676056
aL96L
aL33L
ag7
aI3500
aI40
aa(lp200
F0.5901639344262295
aF0.6551724137931034
aF0.42857142857142855
aF0.7402597402597403
aF0.3333333333333333
aF0.6951219512195121
aF0.375
aL77L
aL45L
ag7
aI3500
aI40
aa(lp201
F0.5104166666666666
aF0.5853658536585366
aF0.45454545454545453
aF0.4444444444444444
aF0.5952380952380952
aF0.5052631578947369
aF0.5154639175257733
aL54L
aL42L
ag7
aI3500
aI40
aa(lp202
F0.627906976744186
aF0.66
aF0.5833333333333334
aF0.6875
aF0.5526315789473685
aF0.673469387755102
aF0.5675675675675677
aL48L
aL38L
ag7
aI3500
aI40
aa(lp203
F0.5846153846153846
aF0.5675675675675675
aF0.6071428571428571
aF0.65625
aF0.5151515151515151
aF0.6086956521739131
aF0.5573770491803278
aL64L
aL66L
ag7
aI3500
aI40
aaa(lp204
(lp205
F0.7207207207207207
aF0.8333333333333334
aF0.45454545454545453
aF0.7831325301204819
aF0.5357142857142857
aF0.8074534161490683
aF0.49180327868852464
aL83L
aL28L
ag7
aI4000
aI40
aa(lp206
F0.6238532110091743
aF0.7285714285714285
aF0.4358974358974359
aF0.6986301369863014
aF0.4722222222222222
aF0.7132867132867133
aF0.45333333333333337
aL73L
aL36L
ag7
aI4000
aI40
aa(lp207
F0.5934065934065934
aF0.6226415094339622
aF0.5526315789473685
aF0.66
aF0.5121951219512195
aF0.6407766990291262
aF0.5316455696202531
aL50L
aL41L
ag7
aI4000
aI40
aa(lp208
F0.5844155844155844
aF0.6486486486486487
aF0.525
aF0.5581395348837209
aF0.6176470588235294
aF0.6
aF0.5675675675675677
aL43L
aL34L
ag7
aI4000
aI40
aa(lp209
F0.5630252100840336
aF0.578125
aF0.5454545454545454
aF0.5967741935483871
aF0.5263157894736842
aF0.5873015873015873
aF0.5357142857142857
aL62L
aL57L
ag7
aI4000
aI40
aaa(lp210
(lp211
F0.6476190476190476
aF0.8055555555555556
aF0.30303030303030304
aF0.7160493827160493
aF0.4166666666666667
aF0.758169934640523
aF0.3508771929824562
aL81L
aL24L
ag7
aI4500
aI40
aa(lp212
F0.5876288659793815
aF0.7407407407407407
aF0.3953488372093023
aF0.6060606060606061
aF0.5483870967741935
aF0.6666666666666666
aF0.45945945945945943
aL66L
aL31L
ag7
aI4500
aI40
aa(lp213
F0.5333333333333333
aF0.6052631578947368
aF0.4594594594594595
aF0.5348837209302325
aF0.53125
aF0.5679012345679012
aF0.4927536231884059
aL43L
aL32L
ag7
aI4500
aI40
aa(lp214
F0.5588235294117647
aF0.6571428571428571
aF0.45454545454545453
aF0.5609756097560976
aF0.5555555555555556
aF0.605263157894737
aF0.5
aL41L
aL27L
ag7
aI4500
aI40
aa(lp215
F0.5462962962962963
aF0.532258064516129
aF0.5652173913043478
aF0.6226415094339622
aF0.4727272727272727
aF0.5739130434782608
aF0.5148514851485148
aL53L
aL55L
ag7
aI4500
aI40
aaa(lp216
(lp217
F0.6704545454545454
aF0.8596491228070176
aF0.3225806451612903
aF0.7
aF0.5555555555555556
aF0.7716535433070866
aF0.40816326530612246
aL70L
aL18L
ag7
aI5000
aI40
aa(lp218
F0.6235294117647059
aF0.7358490566037735
aF0.4375
aF0.6842105263157895
aF0.5
aF0.709090909090909
aF0.4666666666666667
aL57L
aL28L
ag7
aI5000
aI40
aa(lp219
F0.5072463768115942
aF0.5853658536585366
aF0.39285714285714285
aF0.5853658536585366
aF0.39285714285714285
aF0.5853658536585366
aF0.39285714285714285
aL41L
aL28L
ag7
aI5000
aI40
aa(lp220
F0.543859649122807
aF0.6285714285714286
aF0.4090909090909091
aF0.6285714285714286
aF0.4090909090909091
aF0.6285714285714286
aF0.4090909090909091
aL35L
aL22L
ag7
aI5000
aI40
aa(lp221
F0.54
aF0.5192307692307693
aF0.5625
aF0.5625
aF0.5192307692307693
aF0.54
aF0.54
aL48L
aL52L
ag7
aI5000
aI40
aaasS'overLap'
p222
(lp223
I10
aI10
aI10
aI10
aI10
aI10
aI10
aI10
aI10
aI20
aI20
aI20
aI20
aI20
aI20
aI20
aI20
aI20
aI30
aI30
aI30
aI30
aI30
aI30
aI30
aI30
aI30
aI40
aI40
aI40
aI40
aI40
aI40
aI40
aI40
aI40
as.