(dp0
S'winLen'
p1
(lp2
I1000
aI1500
aI2000
aI2500
aI3000
aI3500
asS'data'
p3
(lp4
(lp5
(lp6
F0.6779661016949152
aF0.6724137931034483
aF1.0
aF1.0
aF0.05
aF0.8041237113402061
aF0.09523809523809523
aL39L
aL20L
aS'classifier'
p7
aI1000
aI10
aa(lp8
F0.9736842105263158
aF1.0
aF0.8888888888888888
aF0.9666666666666667
aF1.0
aF0.983050847457627
aF0.9411764705882353
aL30L
aL8L
ag7
aI1000
aI10
aa(lp9
F0.7272727272727273
aF0.7857142857142857
aF0.625
aF0.7857142857142857
aF0.625
aF0.7857142857142857
aF0.625
aL14L
aL8L
ag7
aI1000
aI10
aa(lp10
F0.625
aF0.5714285714285714
aF0.6666666666666666
aF0.5714285714285714
aF0.6666666666666666
aF0.5714285714285714
aF0.6666666666666666
aL7L
aL9L
ag7
aI1000
aI10
aa(lp11
F0.5384615384615384
aF1.0
aF0.0
aF0.5384615384615384
aF0.0
aF0.7000000000000001
aF0.0
aL13L
aL0L
ag7
aI1000
aI10
aaa(lp12
(lp13
F0.6363636363636364
aF0.6363636363636364
aF0.0
aF1.0
aF0.0
aF0.7777777777777778
aF0.0
aL35L
aL20L
ag7
aI1500
aI10
aa(lp14
F1.0
aF1.0
aF1.0
aF1.0
aF1.0
aF1.0
aF1.0
aL28L
aL7L
ag7
aI1500
aI10
aa(lp15
F0.631578947368421
aF0.8
aF0.4444444444444444
aF0.6153846153846154
aF0.6666666666666666
aF0.6956521739130435
aF0.5333333333333333
aL13L
aL6L
ag7
aI1500
aI10
aa(lp16
F1.0
aF1.0
aF1.0
aF1.0
aF1.0
aF1.0
aF1.0
aL6L
aL8L
ag7
aI1500
aI10
aa(lp17
F0.5454545454545454
aF1.0
aF0.0
aF0.5454545454545454
aF0.0
aF0.7058823529411764
aF0.0
aL11L
aL0L
ag7
aI1500
aI10
aaa(lp18
(lp19
F0.64
aF0.6326530612244898
aF1.0
aF1.0
aF0.05263157894736842
aF0.775
aF0.1
aL31L
aL19L
ag7
aI2000
aI10
aa(lp20
F0.96875
aF0.9642857142857143
aF1.0
aF1.0
aF0.8
aF0.9818181818181818
aF0.888888888888889
aL27L
aL5L
ag7
aI2000
aI10
aa(lp21
F0.6470588235294118
aF0.875
aF0.4444444444444444
aF0.5833333333333334
aF0.8
aF0.7000000000000001
aF0.5714285714285714
aL12L
aL5L
ag7
aI2000
aI10
aa(lp22
F1.0
aF1.0
aF1.0
aF1.0
aF1.0
aF1.0
aF1.0
aL6L
aL6L
ag7
aI2000
aI10
aa(lp23
F0.4
aF1.0
aF0.0
aF0.4
aF0.0
aF0.5714285714285715
aF0.0
aL10L
aL0L
ag7
aI2000
aI10
aaa(lp24
(lp25
F0.6744186046511628
aF0.6666666666666666
aF1.0
aF1.0
aF0.06666666666666667
aF0.8
aF0.125
aL28L
aL15L
ag7
aI2500
aI10
aa(lp26
F1.0
aF1.0
aF1.0
aF1.0
aF1.0
aF1.0
aF1.0
aL25L
aL4L
ag7
aI2500
aI10
aa(lp27
F0.6428571428571429
aF0.7777777777777778
aF0.4
aF0.7
aF0.5
aF0.7368421052631577
aF0.4444444444444445
aL10L
aL4L
ag7
aI2500
aI10
aa(lp28
F1.0
aF1.0
aF1.0
aF1.0
aF1.0
aF1.0
aF1.0
aL4L
aL5L
ag7
aI2500
aI10
aa(lp29
F0.5555555555555556
aF1.0
aF0.0
aF0.5555555555555556
aF0.0
aF0.7142857142857143
aF0.0
aL9L
aL0L
ag7
aI2500
aI10
aaa(lp30
(lp31
F0.6842105263157895
aF0.6756756756756757
aF1.0
aF1.0
aF0.07692307692307693
aF0.8064516129032258
aF0.14285714285714288
aL25L
aL13L
ag7
aI3000
aI10
aa(lp32
F1.0
aF1.0
aF1.0
aF1.0
aF1.0
aF1.0
aF1.0
aL23L
aL3L
ag7
aI3000
aI10
aa(lp33
F0.6363636363636364
aF0.75
aF0.3333333333333333
aF0.75
aF0.3333333333333333
aF0.75
aF0.3333333333333333
aL8L
aL3L
ag7
aI3000
aI10
aa(lp34
F1.0
aF1.0
aF1.0
aF1.0
aF1.0
aF1.0
aF1.0
aL3L
aL3L
ag7
aI3000
aI10
aa(lp35
F0.7142857142857143
aF1.0
aF0.0
aF0.7142857142857143
aF0.0
aF0.8333333333333333
aF0.0
aL7L
aL0L
ag7
aI3000
aI10
aaa(lp36
(lp37
F0.6363636363636364
aF0.6363636363636364
aF0.0
aF1.0
aF0.0
aF0.7777777777777778
aF0.0
aL21L
aL12L
ag7
aI3500
aI10
aa(lp38
F1.0
aF1.0
aF1.0
aF1.0
aF1.0
aF1.0
aF1.0
aL21L
aL1L
ag7
aI3500
aI10
aa(lp39
F0.8888888888888888
aF1.0
aF0.6666666666666666
aF0.8571428571428571
aF1.0
aF0.923076923076923
aF0.8
aL7L
aL2L
ag7
aI3500
aI10
aa(lp40
F0.75
aF0.5
aF1.0
aF1.0
aF0.6666666666666666
aF0.6666666666666666
aF0.8
aL1L
aL3L
ag7
aI3500
aI10
aa(lp41
F0.6666666666666666
aF1.0
aF0.0
aF0.6666666666666666
aF0.0
aF0.8
aF0.0
aL6L
aL0L
ag7
aI3500
aI10
aaasS'overLap'
p42
(lp43
I10
aI10
aI10
aI10
aI10
aI10
as.