(dp0
S'winLen'
p1
(lp2
I1000
aI1500
aI2000
aI2500
aI3000
aI3500
aI4000
aI4500
aI5000
aI1000
aI1500
aI2000
aI2500
aI3000
aI3500
aI4000
aI4500
aI5000
aI1000
aI1500
aI2000
aI2500
aI3000
aI3500
aI4000
aI4500
aI5000
aI1000
aI1500
aI2000
aI2500
aI3000
aI3500
aI4000
aI4500
aI5000
asS'data'
p3
(lp4
(lp5
(lp6
F0.8067520372526193
aF0.7933526011560693
aF0.8622754491017964
aF0.9597902097902098
aF0.5017421602787456
aF0.8686708860759494
aF0.6343612334801763
aL572L
aL287L
aS'classifier'
p7
aI1000
aI10
aa(lp8
F0.7314356435643564
aF0.7274305555555556
aF0.7413793103448276
aF0.8747390396659708
aF0.5227963525835866
aF0.7943127962085309
aF0.6131907308377896
aL479L
aL329L
ag7
aI1000
aI10
aa(lp9
F0.6753069577080492
aF0.7150684931506849
aF0.6358695652173914
aF0.660759493670886
aF0.6923076923076923
aF0.6868421052631579
aF0.6628895184135978
aL395L
aL338L
ag7
aI1000
aI10
aa(lp10
F0.6911976911976911
aF0.7166212534059946
aF0.6625766871165644
aF0.7050938337801609
aF0.675
aF0.7108108108108108
aF0.6687306501547987
aL373L
aL320L
ag7
aI1000
aI10
aa(lp11
F0.6412661195779601
aF0.6846153846153846
aF0.6047516198704104
aF0.5933333333333334
aF0.6947890818858561
aF0.6357142857142857
aF0.6466512702078523
aL450L
aL403L
ag7
aI1000
aI10
aaa(lp12
(lp13
F0.8247809762202754
aF0.8115264797507789
aF0.8789808917197452
aF0.9648148148148148
aF0.5328185328185329
aF0.8815566835871405
aF0.6634615384615384
aL540L
aL259L
ag7
aI1500
aI10
aa(lp14
F0.7390146471371505
aF0.7348066298342542
aF0.75
aF0.88470066518847
aF0.52
aF0.8028169014084507
aF0.6141732283464567
aL451L
aL300L
ag7
aI1500
aI10
aa(lp15
F0.6760772659732541
aF0.72
aF0.6350574712643678
aF0.6481994459833795
aF0.7083333333333334
aF0.6822157434402332
aF0.6696969696969697
aL361L
aL312L
ag7
aI1500
aI10
aa(lp16
F0.6788553259141494
aF0.7074626865671642
aF0.6462585034013606
aF0.6950146627565983
aF0.6597222222222222
aF0.7011834319526626
aF0.6529209621993126
aL341L
aL288L
ag7
aI1500
aI10
aa(lp17
F0.6725
aF0.7307692307692307
aF0.6298701298701299
aF0.5909090909090909
aF0.7617801047120419
aF0.6534391534391535
aF0.6895734597156399
aL418L
aL382L
ag7
aI1500
aI10
aaa(lp18
(lp19
F0.8362892223738063
aF0.8262350936967632
aF0.8767123287671232
aF0.9642147117296223
aF0.5565217391304348
aF0.889908256880734
aF0.6808510638297873
aL503L
aL230L
ag7
aI2000
aI10
aa(lp20
F0.7388809182209469
aF0.7439024390243902
aF0.7268292682926829
aF0.8672985781990521
aF0.5418181818181819
aF0.8008752735229759
aF0.6208333333333333
aL422L
aL275L
ag7
aI2000
aI10
aa(lp21
F0.6418152350081038
aF0.696551724137931
aF0.5932721712538226
aF0.6029850746268657
aF0.6879432624113475
aF0.6464
aF0.6371100164203614
aL335L
aL282L
ag7
aI2000
aI10
aa(lp22
F0.7213403880070547
aF0.7443365695792881
aF0.6937984496124031
aF0.7443365695792881
aF0.6937984496124031
aF0.7443365695792881
aF0.6937984496124031
aL309L
aL258L
ag7
aI2000
aI10
aa(lp23
F0.672972972972973
aF0.7377049180327869
aF0.6275862068965518
aF0.5813953488372093
aF0.773371104815864
aF0.6502890173410405
aF0.6928934010152283
aL387L
aL353L
ag7
aI2000
aI10
aaa(lp24
(lp25
F0.8245877061469266
aF0.8268156424581006
aF0.8153846153846154
aF0.9487179487179487
aF0.5326633165829145
aF0.8835820895522388
aF0.6443768996960486
aL468L
aL199L
ag7
aI2500
aI10
aa(lp26
F0.7717908082408875
aF0.7675438596491229
aF0.7828571428571428
aF0.9020618556701031
aF0.5637860082304527
aF0.8293838862559243
aF0.6555023923444975
aL388L
aL243L
ag7
aI2500
aI10
aa(lp27
F0.6881720430107527
aF0.7282229965156795
aF0.6457564575645757
aF0.6852459016393443
aF0.691699604743083
aF0.7060810810810811
aF0.66793893129771
aL305L
aL253L
ag7
aI2500
aI10
aa(lp28
F0.7397260273972602
aF0.7829457364341085
aF0.6956521739130435
aF0.7240143369175627
aF0.7586206896551724
aF0.7523277467411544
aF0.7257731958762885
aL279L
aL232L
ag7
aI2500
aI10
aa(lp29
F0.6409883720930233
aF0.6835016835016835
aF0.6086956521739131
aF0.5702247191011236
aF0.7168674698795181
aF0.6217457886676876
aF0.6583679114799448
aL356L
aL332L
ag7
aI2500
aI10
aaa(lp30
(lp31
F0.835236541598695
aF0.8376753507014028
aF0.8245614035087719
aF0.954337899543379
aF0.5371428571428571
aF0.8922091782283885
aF0.6505190311418685
aL438L
aL175L
ag7
aI3000
aI10
aa(lp32
F0.7521367521367521
aF0.7523148148148148
aF0.7516339869281046
aF0.8953168044077136
aF0.5180180180180181
aF0.8176100628930817
aF0.6133333333333334
aL363L
aL222L
ag7
aI3000
aI10
aa(lp33
F0.6713426853707415
aF0.7364016736401674
aF0.6115384615384616
aF0.6353790613718412
aF0.7162162162162162
aF0.6821705426356589
aF0.6597510373443983
aL277L
aL222L
ag7
aI3000
aI10
aa(lp34
F0.7461368653421634
aF0.8246445497630331
aF0.6776859504132231
aF0.6904761904761905
aF0.8159203980099502
aF0.7516198704103672
aF0.7404063205417607
aL252L
aL201L
ag7
aI3000
aI10
aa(lp35
F0.7272727272727273
aF0.7651245551601423
aF0.6965317919075145
aF0.671875
aF0.7850162866449512
aF0.7154742096505823
aF0.7381316998468608
aL320L
aL307L
ag7
aI3000
aI10
aaa(lp36
(lp37
F0.8520499108734403
aF0.844017094017094
aF0.8924731182795699
aF0.9753086419753086
aF0.532051282051282
aF0.9049255441008018
aF0.6666666666666667
aL405L
aL156L
ag7
aI3500
aI10
aa(lp38
F0.7561436672967864
aF0.753731343283582
aF0.7637795275590551
aF0.9099099099099099
aF0.49489795918367346
aF0.8244897959183672
aF0.6006191950464396
aL333L
aL196L
ag7
aI3500
aI10
aa(lp39
F0.6577777777777778
aF0.7448979591836735
aF0.5905511811023622
aF0.584
aF0.75
aF0.6547085201793723
aF0.6607929515418502
aL250L
aL200L
ag7
aI3500
aI10
aa(lp40
F0.7679012345679013
aF0.8046511627906977
aF0.7263157894736842
aF0.7688888888888888
aF0.7666666666666667
aF0.7863636363636364
aF0.745945945945946
aL225L
aL180L
ag7
aI3500
aI10
aa(lp41
F0.7383820998278829
aF0.8043478260869565
aF0.6951566951566952
aF0.6335616438356164
aF0.8442906574394463
aF0.7088122605363985
aF0.7625
aL292L
aL289L
ag7
aI3500
aI10
aaa(lp42
(lp43
F0.8781925343811395
aF0.8661971830985915
aF0.9397590361445783
aF0.9866310160427807
aF0.5777777777777777
aF0.9225
aF0.7155963302752294
aL374L
aL135L
ag7
aI4000
aI10
aa(lp44
F0.7578947368421053
aF0.7526595744680851
aF0.7777777777777778
aF0.9278688524590164
aF0.45294117647058824
aF0.8311306901615272
aF0.5724907063197026
aL305L
aL170L
ag7
aI4000
aI10
aa(lp45
F0.6943765281173594
aF0.7724867724867724
aF0.6272727272727273
aF0.6403508771929824
aF0.7624309392265194
aF0.7002398081534772
aF0.6882793017456359
aL228L
aL181L
ag7
aI4000
aI10
aa(lp46
F0.8371428571428572
aF0.8723404255319149
aF0.7962962962962963
aF0.8324873096446701
aF0.8431372549019608
aF0.851948051948052
aF0.8190476190476189
aL197L
aL153L
ag7
aI4000
aI10
aa(lp47
F0.7161654135338346
aF0.7881773399014779
aF0.6717325227963525
aF0.5970149253731343
aF0.8371212121212122
aF0.6794055201698515
aF0.745362563237774
aL268L
aL264L
ag7
aI4000
aI10
aaa(lp48
(lp49
F0.8813186813186813
aF0.8858695652173914
aF0.8620689655172413
aF0.9644970414201184
aF0.6410256410256411
aF0.9235127478753541
aF0.7352941176470588
aL338L
aL117L
ag7
aI4500
aI10
aa(lp50
F0.75
aF0.7485714285714286
aF0.7564102564102564
aF0.9323843416370107
aF0.4013605442176871
aF0.8304278922345483
aF0.5244444444444444
aL281L
aL147L
ag7
aI4500
aI10
aa(lp51
F0.7888888888888889
aF0.8263157894736842
aF0.7470588235294118
aF0.785
aF0.79375
aF0.805128205128205
aF0.7696969696969697
aL200L
aL160L
ag7
aI4500
aI10
aa(lp52
F0.8366013071895425
aF0.9038461538461539
aF0.7666666666666667
aF0.8011363636363636
aF0.8846153846153846
aF0.8493975903614458
aF0.8214285714285715
aL176L
aL130L
ag7
aI4500
aI10
aa(lp53
F0.7372881355932204
aF0.7897435897435897
aF0.7003610108303249
aF0.6497890295358649
aF0.825531914893617
aF0.7129629629629629
aF0.7578125
aL237L
aL235L
ag7
aI4500
aI10
aaa(lp54
(lp55
F0.8781094527363185
aF0.9059561128526645
aF0.7710843373493976
aF0.9383116883116883
aF0.6808510638297872
aF0.9218500797448166
aF0.7231638418079096
aL308L
aL94L
ag7
aI5000
aI10
aa(lp56
F0.7539267015706806
aF0.7579617834394905
aF0.7352941176470589
aF0.9296875
aF0.3968253968253968
aF0.8350877192982457
aF0.5154639175257733
aL256L
aL126L
ag7
aI5000
aI10
aa(lp57
F0.7711598746081505
aF0.8043478260869565
aF0.725925925925926
aF0.8
aF0.7313432835820896
aF0.8021680216802168
aF0.7286245353159853
aL185L
aL134L
ag7
aI5000
aI10
aa(lp58
F0.8876404494382022
aF0.9266666666666666
aF0.8376068376068376
aF0.879746835443038
aF0.8990825688073395
aF0.9025974025974027
aF0.8672566371681416
aL158L
aL109L
ag7
aI5000
aI10
aa(lp59
F0.7214611872146118
aF0.7486910994764397
aF0.7004048582995951
aF0.6589861751152074
aF0.7828054298642534
aF0.7009803921568627
aF0.7393162393162394
aL217L
aL221L
ag7
aI5000
aI10
aaa(lp60
(lp61
F0.8056872037914692
aF0.7958579881656804
aF0.8452380952380952
aF0.9539007092198581
aF0.5071428571428571
aF0.8677419354838709
aF0.6339285714285714
aL282L
aL140L
ag7
aI1000
aI20
aa(lp62
F0.7201017811704835
aF0.7340823970037453
aF0.6904761904761905
aF0.8340425531914893
aF0.5506329113924051
aF0.7808764940239045
aF0.6126760563380282
aL235L
aL158L
ag7
aI1000
aI20
aa(lp63
F0.6741573033707865
aF0.7010869565217391
aF0.6453488372093024
aF0.6789473684210526
aF0.6686746987951807
aF0.6898395721925134
aF0.6568047337278106
aL190L
aL166L
ag7
aI1000
aI20
aa(lp64
F0.6816816816816816
aF0.7202380952380952
aF0.6424242424242425
aF0.6722222222222223
aF0.6928104575163399
aF0.6954022988505748
aF0.6666666666666667
aL180L
aL153L
ag7
aI1000
aI20
aa(lp65
F0.6409638554216868
aF0.6804123711340206
aF0.6063348416289592
aF0.6027397260273972
aF0.6836734693877551
aF0.639225181598063
aF0.6426858513189447
aL219L
aL196L
ag7
aI1000
aI20
aaa(lp66
(lp67
F0.8102564102564103
aF0.8031746031746032
aF0.84
aF0.9547169811320755
aF0.504
aF0.8724137931034484
aF0.6300000000000001
aL265L
aL125L
ag7
aI1500
aI20
aa(lp68
F0.73224043715847
aF0.7459677419354839
aF0.7033898305084746
aF0.8409090909090909
aF0.5684931506849316
aF0.7905982905982906
aF0.6287878787878787
aL220L
aL146L
ag7
aI1500
aI20
aa(lp69
F0.6842105263157895
aF0.7239263803680982
aF0.64375
aF0.6742857142857143
aF0.6959459459459459
aF0.6982248520710059
aF0.6688311688311689
aL175L
aL148L
ag7
aI1500
aI20
aa(lp70
F0.6766666666666666
aF0.6918604651162791
aF0.65625
aF0.7300613496932515
aF0.6131386861313869
aF0.7104477611940297
aF0.6339622641509434
aL163L
aL137L
ag7
aI1500
aI20
aa(lp71
F0.6501305483028721
aF0.7005988023952096
aF0.6111111111111112
aF0.582089552238806
aF0.7252747252747253
aF0.6358695652173912
aF0.6633165829145728
aL201L
aL182L
ag7
aI1500
aI20
aaa(lp72
(lp73
F0.8310249307479224
aF0.8263888888888888
aF0.8493150684931506
aF0.9558232931726908
aF0.5535714285714286
aF0.8864059590316574
aF0.6702702702702702
aL249L
aL112L
ag7
aI2000
aI20
aa(lp74
F0.7382352941176471
aF0.7468354430379747
aF0.7184466019417476
aF0.8592233009708737
aF0.5522388059701493
aF0.799097065462754
aF0.6244725738396624
aL206L
aL134L
ag7
aI2000
aI20
aa(lp75
F0.6677852348993288
aF0.7299270072992701
aF0.6149068322981367
aF0.6172839506172839
aF0.7279411764705882
aF0.668896321070234
aF0.6666666666666667
aL162L
aL136L
ag7
aI2000
aI20
aa(lp76
F0.7050359712230215
aF0.7328767123287672
aF0.6742424242424242
aF0.7133333333333334
aF0.6953125
aF0.722972972972973
aF0.6846153846153845
aL150L
aL128L
ag7
aI2000
aI20
aa(lp77
F0.6814404432132964
aF0.7261146496815286
aF0.6470588235294118
aF0.6129032258064516
aF0.7542857142857143
aF0.6647230320699709
aF0.6965699208443272
aL186L
aL175L
ag7
aI2000
aI20
aaa(lp78
(lp79
F0.8179012345679012
aF0.8202247191011236
aF0.8070175438596491
aF0.9521739130434783
aF0.48936170212765956
aF0.8812877263581489
aF0.609271523178808
aL230L
aL94L
ag7
aI2500
aI20
aa(lp80
F0.7475728155339806
aF0.751131221719457
aF0.7386363636363636
aF0.8783068783068783
aF0.5416666666666666
aF0.8097560975609756
aF0.625
aL189L
aL120L
ag7
aI2500
aI20
aa(lp81
F0.6728624535315985
aF0.7238805970149254
aF0.6222222222222222
aF0.6554054054054054
aF0.6942148760330579
aF0.6879432624113475
aF0.65625
aL148L
aL121L
ag7
aI2500
aI20
aa(lp82
F0.6991869918699187
aF0.7459016393442623
aF0.6532258064516129
aF0.6791044776119403
aF0.7232142857142857
aF0.7109374999999999
aF0.6864406779661016
aL134L
aL112L
ag7
aI2500
aI20
aa(lp83
F0.6576576576576577
aF0.6835443037974683
aF0.6342857142857142
aF0.627906976744186
aF0.6894409937888198
aF0.6545454545454547
aF0.6607142857142857
aL172L
aL161L
ag7
aI2500
aI20
aaa(lp84
(lp85
F0.8489932885906041
aF0.8477366255144033
aF0.8545454545454545
aF0.9626168224299065
aF0.5595238095238095
aF0.901531728665208
aF0.6762589928057554
aL214L
aL84L
ag7
aI3000
aI20
aa(lp86
F0.7429577464788732
aF0.7464788732394366
aF0.7323943661971831
aF0.8932584269662921
aF0.49056603773584906
aF0.8132992327365729
aF0.5875706214689266
aL178L
aL106L
ag7
aI3000
aI20
aa(lp87
F0.6804979253112033
aF0.75
aF0.6201550387596899
aF0.631578947368421
aF0.7407407407407407
aF0.6857142857142857
aF0.6751054852320675
aL133L
aL108L
ag7
aI3000
aI20
aa(lp88
F0.75
aF0.8130841121495327
aF0.6902654867256637
aF0.7131147540983607
aF0.7959183673469388
aF0.7598253275109169
aF0.7393364928909952
aL122L
aL98L
ag7
aI3000
aI20
aa(lp89
F0.738562091503268
aF0.7753623188405797
aF0.7083333333333334
aF0.6858974358974359
aF0.7933333333333333
aF0.7278911564625851
aF0.7484276729559749
aL156L
aL150L
ag7
aI3000
aI20
aaa(lp90
(lp91
F0.8545454545454545
aF0.8448275862068966
aF0.9069767441860465
aF0.98
aF0.52
aF0.9074074074074074
aF0.6610169491525424
aL200L
aL75L
ag7
aI3500
aI20
aa(lp92
F0.7401574803149606
aF0.7424242424242424
aF0.7321428571428571
aF0.9074074074074074
aF0.44565217391304346
aF0.8166666666666667
aF0.554054054054054
aL162L
aL92L
ag7
aI3500
aI20
aa(lp93
F0.6774193548387096
aF0.7525773195876289
aF0.6166666666666667
aF0.6134453781512605
aF0.7551020408163265
aF0.6759259259259259
aF0.6788990825688074
aL119L
aL98L
ag7
aI3500
aI20
aa(lp94
F0.7864583333333334
aF0.8252427184466019
aF0.7415730337078652
aF0.7870370370370371
aF0.7857142857142857
aF0.8056872037914692
aF0.7630057803468209
aL108L
aL84L
ag7
aI3500
aI20
aa(lp95
F0.7491166077738516
aF0.7916666666666666
aF0.7177914110429447
aF0.6737588652482269
aF0.823943661971831
aF0.7279693486590039
aF0.7672131147540984
aL141L
aL142L
ag7
aI3500
aI20
aaa(lp96
(lp97
F0.9012345679012346
aF0.8939393939393939
aF0.9333333333333333
aF0.9833333333333333
aF0.6666666666666666
aF0.9365079365079364
aF0.7777777777777778
aL180L
aL63L
ag7
aI4000
aI20
aa(lp98
F0.7478260869565218
aF0.745945945945946
aF0.7555555555555555
aF0.9261744966442953
aF0.41975308641975306
aF0.8263473053892215
aF0.5396825396825395
aL149L
aL81L
ag7
aI4000
aI20
aa(lp99
F0.6907216494845361
aF0.7906976744186046
aF0.6111111111111112
aF0.6181818181818182
aF0.7857142857142857
aF0.693877551020408
aF0.6875000000000001
aL110L
aL84L
ag7
aI4000
aI20
aa(lp100
F0.8253012048192772
aF0.8764044943820225
aF0.7662337662337663
aF0.8125
aF0.8428571428571429
aF0.8432432432432433
aF0.8027210884353742
aL96L
aL70L
ag7
aI4000
aI20
aa(lp101
F0.7233201581027668
aF0.7614678899082569
aF0.6944444444444444
aF0.6535433070866141
aF0.7936507936507936
aF0.7033898305084746
aF0.7407407407407406
aL127L
aL126L
ag7
aI4000
aI20
aaa(lp102
(lp103
F0.8504672897196262
aF0.8735632183908046
aF0.75
aF0.9382716049382716
aF0.5769230769230769
aF0.9047619047619048
aF0.6521739130434783
aL162L
aL52L
ag7
aI4500
aI20
aa(lp104
F0.748792270531401
aF0.7515151515151515
aF0.7380952380952381
aF0.9185185185185185
aF0.4305555555555556
aF0.8266666666666665
aF0.543859649122807
aL135L
aL72L
ag7
aI4500
aI20
aa(lp105
F0.7803468208092486
aF0.8061224489795918
aF0.7466666666666667
aF0.8061224489795918
aF0.7466666666666667
aF0.806122448979592
aF0.7466666666666667
aL98L
aL75L
ag7
aI4500
aI20
aa(lp106
F0.815068493150685
aF0.8933333333333333
aF0.7323943661971831
aF0.7790697674418605
aF0.8666666666666667
aF0.8322981366459627
aF0.7938931297709925
aL86L
aL60L
ag7
aI4500
aI20
aa(lp107
F0.7186147186147186
aF0.7604166666666666
aF0.6888888888888889
aF0.6347826086956522
aF0.8017241379310345
aF0.6919431279620853
aF0.7410358565737052
aL115L
aL116L
ag7
aI4500
aI20
aaa(lp108
(lp109
F0.8814432989690721
aF0.9150326797385621
aF0.7560975609756098
aF0.9333333333333333
aF0.7045454545454546
aF0.9240924092409241
aF0.7294117647058823
aL150L
aL44L
ag7
aI5000
aI20
aa(lp110
F0.7679558011049724
aF0.7718120805369127
aF0.75
aF0.9349593495934959
aF0.41379310344827586
aF0.8455882352941176
aF0.5333333333333333
aL123L
aL58L
ag7
aI5000
aI20
aa(lp111
F0.8116883116883117
aF0.8333333333333334
aF0.78125
aF0.8426966292134831
aF0.7692307692307693
aF0.8379888268156424
aF0.7751937984496126
aL89L
aL65L
ag7
aI5000
aI20
aa(lp112
F0.8809523809523809
aF0.9154929577464789
aF0.8363636363636363
aF0.8783783783783784
aF0.8846153846153846
aF0.896551724137931
aF0.8598130841121494
aL74L
aL52L
ag7
aI5000
aI20
aa(lp113
F0.6904761904761905
aF0.6862745098039216
aF0.6944444444444444
aF0.6796116504854369
aF0.7009345794392523
aF0.6829268292682927
aF0.6976744186046512
aL103L
aL107L
ag7
aI5000
aI20
aaa(lp114
(lp115
F0.8058608058608059
aF0.7901785714285714
aF0.8775510204081632
aF0.9672131147540983
aF0.4777777777777778
aF0.8697788697788698
aF0.6187050359712231
aL183L
aL90L
ag7
aI1000
aI30
aa(lp116
F0.7286821705426356
aF0.7374301675977654
aF0.7088607594936709
aF0.8516129032258064
aF0.5436893203883495
aF0.7904191616766467
aF0.6153846153846153
aL155L
aL103L
ag7
aI1000
aI30
aa(lp117
F0.68
aF0.7130434782608696
aF0.6454545454545455
aF0.6776859504132231
aF0.6826923076923077
aF0.6949152542372882
aF0.663551401869159
aL121L
aL104L
ag7
aI1000
aI30
aa(lp118
F0.6774193548387096
aF0.7130434782608696
aF0.6372549019607843
aF0.6890756302521008
aF0.6632653061224489
aF0.7008547008547008
aF0.6499999999999999
aL119L
aL98L
ag7
aI1000
aI30
aa(lp119
F0.6082089552238806
aF0.6495726495726496
aF0.5761589403973509
aF0.5428571428571428
aF0.6796875
aF0.5914396887159533
aF0.6236559139784945
aL140L
aL128L
ag7
aI1000
aI30
aaa(lp120
(lp121
F0.8055555555555556
aF0.7971014492753623
aF0.8444444444444444
aF0.9593023255813954
aF0.475
aF0.870712401055409
aF0.608
aL172L
aL80L
ag7
aI1500
aI30
aa(lp122
F0.70042194092827
aF0.7068965517241379
aF0.6825396825396826
aF0.8601398601398601
aF0.4574468085106383
aF0.7760252365930599
aF0.5477707006369427
aL143L
aL94L
ag7
aI1500
aI30
aa(lp123
F0.6525821596244131
aF0.6875
aF0.6138613861386139
aF0.6637931034482759
aF0.6391752577319587
aF0.6754385964912282
aF0.6262626262626262
aL116L
aL97L
ag7
aI1500
aI30
aa(lp124
F0.689119170984456
aF0.7184466019417476
aF0.6555555555555556
aF0.7047619047619048
aF0.6704545454545454
aF0.7115384615384616
aF0.6629213483146068
aL105L
aL88L
ag7
aI1500
aI30
aa(lp125
F0.6850393700787402
aF0.7304347826086957
aF0.6474820143884892
aF0.631578947368421
aF0.743801652892562
aF0.6774193548387096
aF0.6923076923076923
aL133L
aL121L
ag7
aI1500
aI30
aaa(lp126
(lp127
F0.8464912280701754
aF0.85
aF0.8333333333333334
aF0.9503105590062112
aF0.5970149253731343
aF0.8973607038123168
aF0.6956521739130433
aL161L
aL67L
ag7
aI2000
aI30
aa(lp128
F0.7194570135746606
aF0.7283950617283951
aF0.6949152542372882
aF0.8676470588235294
aF0.4823529411764706
aF0.7919463087248322
aF0.5694444444444444
aL136L
aL85L
ag7
aI2000
aI30
aa(lp129
F0.6666666666666666
aF0.735632183908046
aF0.6078431372549019
aF0.6153846153846154
aF0.7294117647058823
aF0.6701570680628273
aF0.6631016042780749
aL104L
aL85L
ag7
aI2000
aI30
aa(lp130
F0.7252747252747253
aF0.7474747474747475
aF0.6987951807228916
aF0.7474747474747475
aF0.6987951807228916
aF0.7474747474747475
aF0.6987951807228916
aL99L
aL83L
ag7
aI2000
aI30
aa(lp131
F0.6822033898305084
aF0.7129629629629629
aF0.65625
aF0.6363636363636364
aF0.7304347826086957
aF0.6724890829694323
aF0.691358024691358
aL121L
aL115L
ag7
aI2000
aI30
aaa(lp132
(lp133
F0.8113207547169812
aF0.8208092485549133
aF0.7692307692307693
aF0.9403973509933775
aF0.4918032786885246
aF0.8765432098765432
aF0.6
aL151L
aL61L
ag7
aI2500
aI30
aa(lp134
F0.7376237623762376
aF0.7553956834532374
aF0.6984126984126984
aF0.8467741935483871
aF0.5641025641025641
aF0.7984790874524714
aF0.624113475177305
aL124L
aL78L
ag7
aI2500
aI30
aa(lp135
F0.6685714285714286
aF0.7111111111111111
aF0.6235294117647059
aF0.6666666666666666
aF0.6708860759493671
aF0.6881720430107527
aF0.6463414634146342
aL96L
aL79L
ag7
aI2500
aI30
aa(lp136
F0.7096774193548387
aF0.7692307692307693
aF0.6493506493506493
aF0.6896551724137931
aF0.7352941176470589
aF0.7272727272727274
aF0.6896551724137931
aL87L
aL68L
ag7
aI2500
aI30
aa(lp137
F0.6296296296296297
aF0.6476190476190476
aF0.6126126126126126
aF0.6126126126126126
aF0.6476190476190476
aF0.6296296296296297
aF0.6296296296296297
aL111L
aL105L
ag7
aI2500
aI30
aaa(lp138
(lp139
F0.8205128205128205
aF0.8397435897435898
aF0.7435897435897436
aF0.9290780141843972
aF0.5370370370370371
aF0.8821548821548821
aF0.6236559139784946
aL141L
aL54L
ag7
aI3000
aI30
aa(lp140
F0.7967032967032966
aF0.8
aF0.7884615384615384
aF0.9043478260869565
aF0.6119402985074627
aF0.8489795918367348
aF0.6890756302521007
aL115L
aL67L
ag7
aI3000
aI30
aa(lp141
F0.6645569620253164
aF0.7464788732394366
aF0.5977011494252874
aF0.6022727272727273
aF0.7428571428571429
aF0.6666666666666666
aF0.6624203821656051
aL88L
aL70L
ag7
aI3000
aI30
aa(lp142
F0.7304964539007093
aF0.7777777777777778
aF0.6811594202898551
aF0.717948717948718
aF0.746031746031746
aF0.7466666666666666
aF0.7121212121212122
aL78L
aL63L
ag7
aI3000
aI30
aa(lp143
F0.696969696969697
aF0.71875
aF0.6764705882352942
aF0.6764705882352942
aF0.71875
aF0.696969696969697
aF0.696969696969697
aL102L
aL96L
ag7
aI3000
aI30
aaa(lp144
(lp145
F0.8693181818181818
aF0.8523489932885906
aF0.9629629629629629
aF0.9921875
aF0.5416666666666666
aF0.9169675090252708
aF0.6933333333333334
aL128L
aL48L
ag7
aI3500
aI30
aa(lp146
F0.774390243902439
aF0.7863247863247863
aF0.7446808510638298
aF0.8846153846153846
aF0.5833333333333334
aF0.832579185520362
aF0.6542056074766355
aL104L
aL60L
ag7
aI3500
aI30
aa(lp147
F0.6834532374100719
aF0.7741935483870968
aF0.6103896103896104
aF0.6153846153846154
aF0.7704918032786885
aF0.6857142857142857
aF0.6811594202898551
aL78L
aL61L
ag7
aI3500
aI30
aa(lp148
F0.775
aF0.8253968253968254
aF0.7192982456140351
aF0.7647058823529411
aF0.7884615384615384
aF0.7938931297709922
aF0.7522935779816514
aL68L
aL52L
ag7
aI3500
aI30
aa(lp149
F0.7247191011235955
aF0.7692307692307693
aF0.69
aF0.6593406593406593
aF0.7931034482758621
aF0.7100591715976332
aF0.7379679144385026
aL91L
aL87L
ag7
aI3500
aI30
aaa(lp150
(lp151
F0.86875
aF0.8592592592592593
aF0.92
aF0.9830508474576272
aF0.5476190476190477
aF0.9169960474308301
aF0.6865671641791046
aL118L
aL42L
ag7
aI4000
aI30
aa(lp152
F0.7533333333333333
aF0.7542372881355932
aF0.75
aF0.9175257731958762
aF0.4528301886792453
aF0.827906976744186
aF0.5647058823529413
aL97L
aL53L
ag7
aI4000
aI30
aa(lp153
F0.6875
aF0.7704918032786885
aF0.6119402985074627
aF0.6438356164383562
aF0.7454545454545455
aF0.7014925373134328
aF0.6721311475409837
aL73L
aL55L
ag7
aI4000
aI30
aa(lp154
F0.8285714285714286
aF0.864406779661017
aF0.782608695652174
aF0.8360655737704918
aF0.8181818181818182
aF0.85
aF0.8
aL61L
aL44L
ag7
aI4000
aI30
aa(lp155
F0.7195121951219512
aF0.7536231884057971
aF0.6947368421052632
aF0.6419753086419753
aF0.7951807228915663
aF0.6933333333333332
aF0.7415730337078653
aL81L
aL83L
ag7
aI4000
aI30
aaa(lp156
(lp157
F0.8794326241134752
aF0.8823529411764706
aF0.8636363636363636
aF0.9722222222222222
aF0.5757575757575758
aF0.9251101321585902
aF0.6909090909090909
aL108L
aL33L
ag7
aI4500
aI30
aa(lp158
F0.7481481481481481
aF0.7641509433962265
aF0.6896551724137931
aF0.9
aF0.4444444444444444
aF0.826530612244898
aF0.5405405405405405
aL90L
aL45L
ag7
aI4500
aI30
aa(lp159
F0.7870370370370371
aF0.8545454545454545
aF0.7169811320754716
aF0.7580645161290323
aF0.8260869565217391
aF0.8034188034188033
aF0.7676767676767677
aL62L
aL46L
ag7
aI4500
aI30
aa(lp160
F0.7419354838709677
aF0.8
aF0.6744186046511628
aF0.7407407407407407
aF0.7435897435897436
aF0.7692307692307692
aF0.7073170731707318
aL54L
aL39L
ag7
aI4500
aI30
aa(lp161
F0.6959459459459459
aF0.7083333333333334
aF0.6842105263157895
aF0.68
aF0.7123287671232876
aF0.6938775510204083
aF0.6979865771812079
aL75L
aL73L
ag7
aI4500
aI30
aaa(lp162
(lp163
F0.8346456692913385
aF0.8969072164948454
aF0.6333333333333333
aF0.8877551020408163
aF0.6551724137931034
aF0.8923076923076922
aF0.6440677966101694
aL98L
aL29L
ag7
aI5000
aI30
aa(lp164
F0.7672413793103449
aF0.797752808988764
aF0.6666666666666666
aF0.8875
aF0.5
aF0.8402366863905325
aF0.5714285714285715
aL80L
aL36L
ag7
aI5000
aI30
aa(lp165
F0.8163265306122449
aF0.8095238095238095
aF0.8285714285714286
aF0.8947368421052632
aF0.7073170731707317
aF0.8500000000000001
aF0.7631578947368421
aL57L
aL41L
ag7
aI5000
aI30
aa(lp166
F0.8375
aF0.8723404255319149
aF0.7878787878787878
aF0.8541666666666666
aF0.8125
aF0.8631578947368421
aF0.8
aL48L
aL32L
ag7
aI5000
aI30
aa(lp167
F0.7132352941176471
aF0.7076923076923077
aF0.7183098591549296
aF0.696969696969697
aF0.7285714285714285
aF0.702290076335878
aF0.7234042553191489
aL66L
aL70L
ag7
aI5000
aI30
aaa(lp168
(lp169
F0.7574257425742574
aF0.7619047619047619
aF0.7352941176470589
aF0.9343065693430657
aF0.38461538461538464
aF0.8393442622950819
aF0.5050505050505051
aL137L
aL65L
ag7
aI1000
aI40
aa(lp170
F0.6739130434782609
aF0.6953125
aF0.625
aF0.8090909090909091
aF0.47297297297297297
aF0.7478991596638657
aF0.5384615384615384
aL110L
aL74L
ag7
aI1000
aI40
aa(lp171
F0.6369047619047619
aF0.6883116883116883
aF0.5934065934065934
aF0.5888888888888889
aF0.6923076923076923
aF0.6347305389221557
aF0.6390532544378699
aL90L
aL78L
ag7
aI1000
aI40
aa(lp172
F0.6242038216560509
aF0.6404494382022472
aF0.6029411764705882
aF0.6785714285714286
aF0.5616438356164384
aF0.6589595375722543
aF0.5815602836879432
aL84L
aL73L
ag7
aI1000
aI40
aa(lp173
F0.6205128205128205
aF0.6666666666666666
aF0.580952380952381
aF0.5769230769230769
aF0.6703296703296703
aF0.6185567010309277
aF0.6224489795918368
aL104L
aL91L
ag7
aI1000
aI40
aaa(lp174
(lp175
F0.8131868131868132
aF0.8226950354609929
aF0.7804878048780488
aF0.928
aF0.5614035087719298
aF0.8721804511278196
aF0.653061224489796
aL125L
aL57L
ag7
aI1500
aI40
aa(lp176
F0.7028571428571428
aF0.717741935483871
aF0.6666666666666666
aF0.839622641509434
aF0.4927536231884058
aF0.773913043478261
aF0.5666666666666667
aL106L
aL69L
ag7
aI1500
aI40
aa(lp177
F0.6298701298701299
aF0.6944444444444444
aF0.573170731707317
aF0.5882352941176471
aF0.6811594202898551
aF0.6369426751592357
aF0.6225165562913908
aL85L
aL69L
ag7
aI1500
aI40
aa(lp178
F0.6857142857142857
aF0.6962025316455697
aF0.6721311475409836
aF0.7333333333333333
aF0.6307692307692307
aF0.7142857142857143
aF0.6507936507936507
aL75L
aL65L
ag7
aI1500
aI40
aa(lp179
F0.625
aF0.6511627906976745
aF0.6020408163265306
aF0.5894736842105263
aF0.6629213483146067
aF0.6187845303867403
aF0.6310160427807486
aL95L
aL89L
ag7
aI1500
aI40
aaa(lp180
(lp181
F0.8461538461538461
aF0.8394160583941606
aF0.875
aF0.9663865546218487
aF0.56
aF0.8984375
aF0.6829268292682927
aL119L
aL50L
ag7
aI2000
aI40
aa(lp182
F0.75
aF0.7636363636363637
aF0.72
aF0.8571428571428571
aF0.5806451612903226
aF0.8076923076923076
aF0.6428571428571428
aL98L
aL62L
ag7
aI2000
aI40
aa(lp183
F0.7037037037037037
aF0.75
aF0.6567164179104478
aF0.6891891891891891
aF0.7213114754098361
aF0.7183098591549296
aF0.6875
aL74L
aL61L
ag7
aI2000
aI40
aa(lp184
F0.7633587786259542
aF0.8
aF0.7213114754098361
aF0.7671232876712328
aF0.7586206896551724
aF0.7832167832167832
aF0.7394957983193277
aL73L
aL58L
ag7
aI2000
aI40
aa(lp185
F0.686046511627907
aF0.7058823529411765
aF0.6666666666666666
aF0.6741573033707865
aF0.6987951807228916
aF0.6896551724137931
aF0.6823529411764706
aL89L
aL83L
ag7
aI2000
aI40
aaa(lp186
(lp187
F0.782051282051282
aF0.8130081300813008
aF0.6666666666666666
aF0.9009009009009009
aF0.4888888888888889
aF0.8547008547008547
aF0.5641025641025641
aL111L
aL45L
ag7
aI2500
aI40
aa(lp188
F0.7534246575342466
aF0.7545454545454545
aF0.75
aF0.9021739130434783
aF0.5
aF0.8217821782178217
aF0.6
aL92L
aL54L
ag7
aI2500
aI40
aa(lp189
F0.6587301587301587
aF0.6911764705882353
aF0.6206896551724138
aF0.6811594202898551
aF0.631578947368421
aF0.6861313868613138
aF0.6260869565217391
aL69L
aL57L
ag7
aI2500
aI40
aa(lp190
F0.6666666666666666
aF0.7321428571428571
aF0.603448275862069
aF0.640625
aF0.7
aF0.6833333333333332
aF0.6481481481481481
aL64L
aL50L
ag7
aI2500
aI40
aa(lp191
F0.5923566878980892
aF0.6043956043956044
aF0.5757575757575758
aF0.6626506024096386
aF0.5135135135135135
aF0.632183908045977
aF0.5428571428571428
aL83L
aL74L
ag7
aI2500
aI40
aaa(lp192
(lp193
F0.8472222222222222
aF0.8403361344537815
aF0.88
aF0.970873786407767
aF0.5365853658536586
aF0.9009009009009008
aF0.6666666666666667
aL103L
aL41L
ag7
aI3000
aI40
aa(lp194
F0.7744360902255639
aF0.7956989247311828
aF0.725
aF0.8705882352941177
aF0.6041666666666666
aF0.8314606741573034
aF0.6590909090909091
aL85L
aL48L
ag7
aI3000
aI40
aa(lp195
F0.6724137931034483
aF0.7547169811320755
aF0.6031746031746031
aF0.6153846153846154
aF0.7450980392156863
aF0.6779661016949153
aF0.6666666666666666
aL65L
aL51L
ag7
aI3000
aI40
aa(lp196
F0.7551020408163265
aF0.7962962962962963
aF0.7045454545454546
aF0.7678571428571429
aF0.7380952380952381
aF0.7818181818181819
aF0.7209302325581395
aL56L
aL42L
ag7
aI3000
aI40
aa(lp197
F0.7569444444444444
aF0.7468354430379747
aF0.7692307692307693
aF0.7972972972972973
aF0.7142857142857143
aF0.7712418300653594
aF0.7407407407407408
aL74L
aL70L
ag7
aI3000
aI40
aaa(lp198
(lp199
F0.8527131782945736
aF0.8598130841121495
aF0.8181818181818182
aF0.9583333333333334
aF0.5454545454545454
aF0.9064039408866995
aF0.6545454545454545
aL96L
aL33L
ag7
aI3500
aI40
aa(lp200
F0.7459016393442623
aF0.7555555555555555
aF0.71875
aF0.8831168831168831
aF0.5111111111111111
aF0.8143712574850299
aF0.5974025974025974
aL77L
aL45L
ag7
aI3500
aI40
aa(lp201
F0.6666666666666666
aF0.7894736842105263
aF0.5862068965517241
aF0.5555555555555556
aF0.8095238095238095
aF0.6521739130434783
aF0.68
aL54L
aL42L
ag7
aI3500
aI40
aa(lp202
F0.7906976744186046
aF0.8260869565217391
aF0.75
aF0.7916666666666666
aF0.7894736842105263
aF0.8085106382978724
aF0.7692307692307692
aL48L
aL38L
ag7
aI3500
aI40
aa(lp203
F0.7538461538461538
aF0.82
aF0.7125
aF0.640625
aF0.8636363636363636
aF0.7192982456140351
aF0.7808219178082192
aL64L
aL66L
ag7
aI3500
aI40
aaa(lp204
(lp205
F0.9009009009009009
aF0.8913043478260869
aF0.9473684210526315
aF0.9879518072289156
aF0.6428571428571429
aF0.9371428571428572
aF0.7659574468085106
aL83L
aL28L
ag7
aI4000
aI40
aa(lp206
F0.7431192660550459
aF0.7586206896551724
aF0.6818181818181818
aF0.9041095890410958
aF0.4166666666666667
aF0.825
aF0.5172413793103449
aL73L
aL36L
ag7
aI4000
aI40
aa(lp207
F0.6373626373626373
aF0.7297297297297297
aF0.5740740740740741
aF0.54
aF0.7560975609756098
aF0.6206896551724138
aF0.6526315789473683
aL50L
aL41L
ag7
aI4000
aI40
aa(lp208
F0.8311688311688312
aF0.8571428571428571
aF0.8
aF0.8372093023255814
aF0.8235294117647058
aF0.8470588235294119
aF0.8115942028985507
aL43L
aL34L
ag7
aI4000
aI40
aa(lp209
F0.6974789915966386
aF0.75
aF0.6567164179104478
aF0.6290322580645161
aF0.7719298245614035
aF0.6842105263157896
aF0.7096774193548386
aL62L
aL57L
ag7
aI4000
aI40
aaa(lp210
(lp211
F0.8761904761904762
aF0.8953488372093024
aF0.7894736842105263
aF0.9506172839506173
aF0.625
aF0.9221556886227545
aF0.6976744186046512
aL81L
aL24L
ag7
aI4500
aI40
aa(lp212
F0.7216494845360825
aF0.7407407407407407
aF0.625
aF0.9090909090909091
aF0.3225806451612903
aF0.8163265306122449
aF0.425531914893617
aL66L
aL31L
ag7
aI4500
aI40
aa(lp213
F0.7333333333333333
aF0.7948717948717948
aF0.6666666666666666
aF0.7209302325581395
aF0.75
aF0.7560975609756098
aF0.7058823529411765
aL43L
aL32L
ag7
aI4500
aI40
aa(lp214
F0.8382352941176471
aF0.9411764705882353
aF0.7352941176470589
aF0.7804878048780488
aF0.9259259259259259
aF0.8533333333333334
aF0.819672131147541
aL41L
aL27L
ag7
aI4500
aI40
aa(lp215
F0.7129629629629629
aF0.7619047619047619
aF0.6818181818181818
aF0.6037735849056604
aF0.8181818181818182
aF0.6736842105263159
aF0.7438016528925621
aL53L
aL55L
ag7
aI4500
aI40
aaa(lp216
(lp217
F0.8863636363636364
aF0.9054054054054054
aF0.7857142857142857
aF0.9571428571428572
aF0.6111111111111112
aF0.9305555555555555
aF0.6875000000000001
aL70L
aL18L
ag7
aI5000
aI40
aa(lp218
F0.7176470588235294
aF0.7619047619047619
aF0.5909090909090909
aF0.8421052631578947
aF0.4642857142857143
aF0.8
aF0.52
aL57L
aL28L
ag7
aI5000
aI40
aa(lp219
F0.8260869565217391
aF0.8717948717948718
aF0.7666666666666667
aF0.8292682926829268
aF0.8214285714285714
aF0.8500000000000001
aF0.793103448275862
aL41L
aL28L
ag7
aI5000
aI40
aa(lp220
F0.8596491228070176
aF0.8857142857142857
aF0.8181818181818182
aF0.8857142857142857
aF0.8181818181818182
aF0.8857142857142857
aF0.8181818181818182
aL35L
aL22L
ag7
aI5000
aI40
aa(lp221
F0.7
aF0.6956521739130435
aF0.7037037037037037
aF0.6666666666666666
aF0.7307692307692307
aF0.6808510638297872
aF0.7169811320754716
aL48L
aL52L
ag7
aI5000
aI40
aaasS'overLap'
p222
(lp223
I10
aI10
aI10
aI10
aI10
aI10
aI10
aI10
aI10
aI20
aI20
aI20
aI20
aI20
aI20
aI20
aI20
aI20
aI30
aI30
aI30
aI30
aI30
aI30
aI30
aI30
aI30
aI40
aI40
aI40
aI40
aI40
aI40
aI40
aI40
aI40
as.