(dp0
S'winLen'
p1
(lp2
I5000
asS'data'
p3
(lp4
(lp5
(lp6
F0.8855721393034826
aF0.901840490797546
aF0.8157894736842105
aF0.9545454545454546
aF0.6595744680851063
aF0.9274447949526813
aF0.7294117647058823
aL308L
aL94L
aS'classifier'
p7
aI5000
aI10
aa(lp8
F0.8089005235602095
aF0.801980198019802
aF0.8354430379746836
aF0.94921875
aF0.5238095238095238
aF0.8694096601073346
aF0.6439024390243903
aL256L
aL126L
ag7
aI5000
aI10
aa(lp9
F0.9811912225705329
aF0.9837837837837838
aF0.9776119402985075
aF0.9837837837837838
aF0.9776119402985075
aF0.9837837837837838
aF0.9776119402985075
aL185L
aL134L
ag7
aI5000
aI10
aa(lp10
F0.898876404494382
aF0.8922155688622755
aF0.91
aF0.9430379746835443
aF0.8348623853211009
aF0.916923076923077
aF0.8708133971291867
aL158L
aL109L
ag7
aI5000
aI10
aa(lp11
F0.8036529680365296
aF0.8875739644970414
aF0.7509293680297398
aF0.6912442396313364
aF0.9140271493212669
aF0.7772020725388601
aF0.8244897959183674
aL217L
aL221L
ag7
aI5000
aI10
aaasS'overLap'
p12
(lp13
I10
as.