(dp0
S'winLen'
p1
(lp2
I200
aI300
aI400
aI500
asS'data'
p3
(lp4
(lp5
(lp6
F0.5925925925925926
aF0.5925925925925926
aF0.0
aF1.0
aF0.0
aF0.7441860465116279
aF0.0
aL16L
aL11L
aS'classifier'
p7
aI200
aI10
aa(lp8
F0.9411764705882353
aF0.9411764705882353
aF0.0
aF1.0
aF0.0
aF0.9696969696969697
aF0.0
aL16L
aL1L
ag7
aI200
aI10
aa(lp9
F1.0
aF1.0
aF1.0
aF1.0
aL10L
ag7
aI200
aI10
aa(lp10
F1.0
aF1.0
aF1.0
aF1.0
aL16L
ag7
aI200
aI10
aa(lp11
F1.0
aF1.0
aF1.0
aF1.0
aL11L
ag7
aI200
aI10
aaa(lp12
(lp13
F0.5925925925925926
aF0.5925925925925926
aF0.0
aF1.0
aF0.0
aF0.7441860465116279
aF0.0
aL16L
aL11L
ag7
aI300
aI10
aa(lp14
F0.9411764705882353
aF0.9411764705882353
aF0.0
aF1.0
aF0.0
aF0.9696969696969697
aF0.0
aL16L
aL1L
ag7
aI300
aI10
aa(lp15
F1.0
aF1.0
aF1.0
aF1.0
aL10L
ag7
aI300
aI10
aa(lp16
F1.0
aF1.0
aF1.0
aF1.0
aL16L
ag7
aI300
aI10
aa(lp17
F1.0
aF1.0
aF1.0
aF1.0
aL11L
ag7
aI300
aI10
aaa(lp18
(lp19
F0.5925925925925926
aF0.5925925925925926
aF0.0
aF1.0
aF0.0
aF0.7441860465116279
aF0.0
aL16L
aL11L
ag7
aI400
aI10
aa(lp20
F0.9411764705882353
aF0.9411764705882353
aF0.0
aF1.0
aF0.0
aF0.9696969696969697
aF0.0
aL16L
aL1L
ag7
aI400
aI10
aa(lp21
F1.0
aF1.0
aF1.0
aF1.0
aL10L
ag7
aI400
aI10
aa(lp22
F1.0
aF1.0
aF1.0
aF1.0
aL16L
ag7
aI400
aI10
aa(lp23
F1.0
aF1.0
aF1.0
aF1.0
aL11L
ag7
aI400
aI10
aaa(lp24
(lp25
F0.5925925925925926
aF0.5925925925925926
aF0.0
aF1.0
aF0.0
aF0.7441860465116279
aF0.0
aL16L
aL11L
ag7
aI500
aI10
aa(lp26
F0.9411764705882353
aF0.9411764705882353
aF0.0
aF1.0
aF0.0
aF0.9696969696969697
aF0.0
aL16L
aL1L
ag7
aI500
aI10
aa(lp27
F1.0
aF1.0
aF1.0
aF1.0
aL10L
ag7
aI500
aI10
aa(lp28
F1.0
aF1.0
aF1.0
aF1.0
aL16L
ag7
aI500
aI10
aa(lp29
F1.0
aF1.0
aF1.0
aF1.0
aL11L
ag7
aI500
aI10
aaasS'overLap'
p30
(lp31
I10
aI10
aI10
aI10
as.