(dp0
S'winLen'
p1
(lp2
I5000
asS'data'
p3
(lp4
(lp5
(lp6
F0.8855721393034826
aF0.8945783132530121
aF0.8428571428571429
aF0.9642857142857143
aF0.6276595744680851
aF0.928125
aF0.7195121951219512
aL308L
aL94L
aS'classifier'
p7
aI5000
aI10
aa(lp8
F0.8010471204188482
aF0.8082191780821918
aF0.7777777777777778
aF0.921875
aF0.5555555555555556
aF0.8613138686131386
aF0.6481481481481481
aL256L
aL126L
ag7
aI5000
aI10
aa(lp9
F0.9529780564263323
aF0.9829545454545454
aF0.916083916083916
aF0.9351351351351351
aF0.9776119402985075
aF0.9584487534626038
aF0.9458483754512635
aL185L
aL134L
ag7
aI5000
aI10
aa(lp10
F0.9063670411985019
aF0.934640522875817
aF0.868421052631579
aF0.9050632911392406
aF0.908256880733945
aF0.9196141479099678
aF0.8878923766816144
aL158L
aL109L
ag7
aI5000
aI10
aa(lp11
F0.7990867579908676
aF0.951048951048951
aF0.7254237288135593
aF0.6267281105990783
aF0.9683257918552036
aF0.7555555555555555
aF0.8294573643410853
aL217L
aL221L
ag7
aI5000
aI10
aaasS'overLap'
p12
(lp13
I10
as.