(dp0
S'winLen'
p1
(lp2
I1000
aI1500
aI2000
aI2500
aI3000
aI3500
asS'data'
p3
(lp4
(lp5
(lp6
F0.8363636363636363
aF0.8363636363636363
aF0.0
aF1.0
aF0.0
aF0.9108910891089108
aF0.0
aL46L
aL9L
aS'classifier'
p7
aI1000
aI10
aa(lp8
F0.6363636363636364
aF0.6
aF1.0
aF1.0
aF0.2
aF0.7499999999999999
aF0.33333333333333337
aL18L
aL15L
ag7
aI1000
aI10
aa(lp9
F0.5
aF0.44
aF1.0
aF1.0
aF0.17647058823529413
aF0.6111111111111112
aF0.3
aL11L
aL17L
ag7
aI1000
aI10
aa(lp10
F0.8709677419354839
aF0.9642857142857143
aF0.0
aF0.9
aF0.0
aF0.9310344827586207
aF0.0
aL30L
aL1L
ag7
aI1000
aI10
aa(lp11
F0.6923076923076923
aF1.0
aF0.0
aF0.6923076923076923
aF0.0
aF0.8181818181818181
aF0.0
aL26L
aL0L
ag7
aI1000
aI10
aaa(lp12
(lp13
F0.9019607843137255
aF0.8979591836734694
aF1.0
aF1.0
aF0.2857142857142857
aF0.9462365591397849
aF0.4444444444444445
aL44L
aL7L
ag7
aI1500
aI10
aa(lp14
F0.6774193548387096
aF0.6296296296296297
aF1.0
aF1.0
aF0.2857142857142857
aF0.7727272727272727
aF0.4444444444444445
aL17L
aL14L
ag7
aI1500
aI10
aa(lp15
F0.5652173913043478
aF0.47368421052631576
aF1.0
aF1.0
aF0.2857142857142857
aF0.6428571428571429
aF0.4444444444444445
aL9L
aL14L
ag7
aI1500
aI10
aa(lp16
F0.8620689655172413
aF1.0
aF0.0
aF0.8620689655172413
aF0.0
aF0.9259259259259259
aF0.0
aL29L
aL0L
ag7
aI1500
aI10
aa(lp17
F0.875
aF1.0
aF0.0
aF0.875
aF0.0
aF0.9333333333333333
aF0.0
aL24L
aL0L
ag7
aI1500
aI10
aaa(lp18
(lp19
F0.9387755102040817
aF0.9333333333333333
aF1.0
aF1.0
aF0.5714285714285714
aF0.9655172413793104
aF0.7272727272727273
aL42L
aL7L
ag7
aI2000
aI10
aa(lp20
F0.5555555555555556
aF0.5555555555555556
aF0.0
aF1.0
aF0.0
aF0.7142857142857143
aF0.0
aL15L
aL12L
ag7
aI2000
aI10
aa(lp21
F0.6363636363636364
aF0.5
aF1.0
aF1.0
aF0.42857142857142855
aF0.6666666666666666
aF0.6
aL8L
aL14L
ag7
aI2000
aI10
aa(lp22
F0.7777777777777778
aF1.0
aF0.0
aF0.7777777777777778
aF0.0
aF0.8750000000000001
aF0.0
aL27L
aL0L
ag7
aI2000
aI10
aa(lp23
F0.8260869565217391
aF1.0
aF0.0
aF0.8260869565217391
aF0.0
aF0.9047619047619047
aF0.0
aL23L
aL0L
ag7
aI2000
aI10
aaa(lp24
(lp25
F0.8913043478260869
aF0.8888888888888888
aF1.0
aF1.0
aF0.16666666666666666
aF0.9411764705882353
aF0.2857142857142857
aL40L
aL6L
ag7
aI2500
aI10
aa(lp26
F0.5652173913043478
aF0.5652173913043478
aF0.0
aF1.0
aF0.0
aF0.7222222222222222
aF0.0
aL13L
aL10L
ag7
aI2500
aI10
aa(lp27
F0.631578947368421
aF0.46153846153846156
aF1.0
aF1.0
aF0.46153846153846156
aF0.631578947368421
aF0.631578947368421
aL6L
aL13L
ag7
aI2500
aI10
aa(lp28
F0.76
aF1.0
aF0.0
aF0.76
aF0.0
aF0.8636363636363636
aF0.0
aL25L
aL0L
ag7
aI2500
aI10
aa(lp29
F0.8095238095238095
aF1.0
aF0.0
aF0.8095238095238095
aF0.0
aF0.8947368421052632
aF0.0
aL21L
aL0L
ag7
aI2500
aI10
aaa(lp30
(lp31
F1.0
aF1.0
aF1.0
aF1.0
aF1.0
aF1.0
aF1.0
aL39L
aL4L
ag7
aI3000
aI10
aa(lp32
F0.55
aF0.55
aF0.0
aF1.0
aF0.0
aF0.7096774193548387
aF0.0
aL11L
aL9L
ag7
aI3000
aI10
aa(lp33
F0.6470588235294118
aF0.5
aF1.0
aF1.0
aF0.45454545454545453
aF0.6666666666666666
aF0.625
aL6L
aL11L
ag7
aI3000
aI10
aa(lp34
F0.7083333333333334
aF1.0
aF0.0
aF0.7083333333333334
aF0.0
aF0.8292682926829268
aF0.0
aL24L
aL0L
ag7
aI3000
aI10
aa(lp35
F1.0
aF1.0
aF1.0
aF1.0
aL20L
ag7
aI3000
aI10
aaa(lp36
(lp37
F1.0
aF1.0
aF1.0
aF1.0
aF1.0
aF1.0
aF1.0
aL37L
aL3L
ag7
aI3500
aI10
aa(lp38
F0.5555555555555556
aF0.5555555555555556
aF0.0
aF1.0
aF0.0
aF0.7142857142857143
aF0.0
aL10L
aL8L
ag7
aI3500
aI10
aa(lp39
F0.38461538461538464
aF0.3333333333333333
aF1.0
aF1.0
aF0.1111111111111111
aF0.5
aF0.19999999999999998
aL4L
aL9L
ag7
aI3500
aI10
aa(lp40
F0.6363636363636364
aF1.0
aF0.0
aF0.6363636363636364
aF0.0
aF0.7777777777777778
aF0.0
aL22L
aL0L
ag7
aI3500
aI10
aa(lp41
F0.8823529411764706
aF1.0
aF0.0
aF0.8823529411764706
aF0.0
aF0.9375
aF0.0
aL17L
aL0L
ag7
aI3500
aI10
aaasS'overLap'
p42
(lp43
I10
aI10
aI10
aI10
aI10
aI10
as.