(dp0
S'winLen'
p1
(lp2
I1000
aI1500
aI2000
aI2500
aI3000
aI3500
asS'data'
p3
(lp4
(lp5
(lp6
F0.2653061224489796
aF0.0
aF0.2708333333333333
aF0.0
aF0.9285714285714286
aF0.0
aF0.41935483870967744
aL35L
aL14L
aS'classifier'
p7
aI1000
aI10
aa(lp8
F0.6428571428571429
aF0.5833333333333334
aF1.0
aF1.0
aF0.2857142857142857
aF0.7368421052631579
aF0.4444444444444445
aL14L
aL14L
ag7
aI1000
aI10
aa(lp9
F0.5625
aF0.0
aF1.0
aF0.0
aF0.5625
aF0.0
aF0.72
aL0L
aL16L
ag7
aI1000
aI10
aa(lp10
F0.68
aF0.5333333333333333
aF0.9
aF0.8888888888888888
aF0.5625
aF0.6666666666666667
aF0.6923076923076923
aL9L
aL16L
ag7
aI1000
aI10
aa(lp11
F0.7142857142857143
aF1.0
aF0.0
aF0.7142857142857143
aF0.0
aF0.8333333333333333
aF0.0
aL14L
aL0L
ag7
aI1000
aI10
aaa(lp12
(lp13
F0.2727272727272727
aF0.0
aF0.27906976744186046
aF0.0
aF0.9230769230769231
aF0.0
aF0.42857142857142855
aL31L
aL13L
ag7
aI1500
aI10
aa(lp14
F0.7307692307692307
aF0.65
aF1.0
aF1.0
aF0.46153846153846156
aF0.787878787878788
aF0.631578947368421
aL13L
aL13L
ag7
aI1500
aI10
aa(lp15
F0.7142857142857143
aF0.0
aF1.0
aF0.0
aF0.7142857142857143
aF0.0
aF0.8333333333333333
aL0L
aL14L
ag7
aI1500
aI10
aa(lp16
F0.7142857142857143
aF0.5714285714285714
aF0.7857142857142857
aF0.5714285714285714
aF0.7857142857142857
aF0.5714285714285714
aF0.7857142857142857
aL7L
aL14L
ag7
aI1500
aI10
aa(lp17
F0.38461538461538464
aF1.0
aF0.0
aF0.38461538461538464
aF0.0
aF0.5555555555555556
aF0.0
aL13L
aL0L
ag7
aI1500
aI10
aaa(lp18
(lp19
F0.28205128205128205
aF0.0
aF0.28205128205128205
aF0.0
aF1.0
aF0.0
aF0.44000000000000006
aL28L
aL11L
ag7
aI2000
aI10
aa(lp20
F0.782608695652174
aF0.6875
aF1.0
aF1.0
aF0.5833333333333334
aF0.8148148148148148
aF0.7368421052631579
aL11L
aL12L
ag7
aI2000
aI10
aa(lp21
F0.38461538461538464
aF0.0
aF1.0
aF0.0
aF0.38461538461538464
aF0.0
aF0.5555555555555556
aL0L
aL13L
ag7
aI2000
aI10
aa(lp22
F0.65
aF0.5
aF0.7142857142857143
aF0.42857142857142855
aF0.7692307692307693
aF0.4615384615384615
aF0.7407407407407408
aL7L
aL13L
ag7
aI2000
aI10
aa(lp23
F0.36363636363636365
aF1.0
aF0.0
aF0.36363636363636365
aF0.0
aF0.5333333333333333
aF0.0
aL11L
aL0L
ag7
aI2000
aI10
aaa(lp24
(lp25
F0.2647058823529412
aF0.0
aF0.2647058823529412
aF0.0
aF1.0
aF0.0
aF0.4186046511627907
aL25L
aL9L
ag7
aI2500
aI10
aa(lp26
F0.8
aF0.7142857142857143
aF1.0
aF1.0
aF0.6
aF0.8333333333333333
aF0.7499999999999999
aL10L
aL10L
ag7
aI2500
aI10
aa(lp27
F0.3333333333333333
aF0.0
aF1.0
aF0.0
aF0.3333333333333333
aF0.0
aF0.5
aL0L
aL12L
ag7
aI2500
aI10
aa(lp28
F0.47058823529411764
aF0.2
aF0.5833333333333334
aF0.16666666666666666
aF0.6363636363636364
aF0.1818181818181818
aF0.6086956521739131
aL6L
aL11L
ag7
aI2500
aI10
aa(lp29
F0.4444444444444444
aF1.0
aF0.0
aF0.4444444444444444
aF0.0
aF0.6153846153846153
aF0.0
aL9L
aL0L
ag7
aI2500
aI10
aaa(lp30
(lp31
F0.27586206896551724
aF0.0
aF0.27586206896551724
aF0.0
aF1.0
aF0.0
aF0.4324324324324324
aL21L
aL8L
ag7
aI3000
aI10
aa(lp32
F0.7647058823529411
aF0.6666666666666666
aF1.0
aF1.0
aF0.5555555555555556
aF0.8
aF0.7142857142857143
aL8L
aL9L
ag7
aI3000
aI10
aa(lp33
F0.7272727272727273
aF0.0
aF1.0
aF0.0
aF0.7272727272727273
aF0.0
aF0.8421052631578948
aL0L
aL11L
ag7
aI3000
aI10
aa(lp34
F0.7857142857142857
aF1.0
aF0.7692307692307693
aF0.25
aF1.0
aF0.4
aF0.8695652173913044
aL4L
aL10L
ag7
aI3000
aI10
aa(lp35
F0.14285714285714285
aF1.0
aF0.0
aF0.14285714285714285
aF0.0
aF0.25
aF0.0
aL7L
aL0L
ag7
aI3000
aI10
aaa(lp36
(lp37
F0.2916666666666667
aF0.0
aF0.2916666666666667
aF0.0
aF1.0
aF0.0
aF0.45161290322580644
aL17L
aL7L
ag7
aI3500
aI10
aa(lp38
F0.7142857142857143
aF0.6363636363636364
aF1.0
aF1.0
aF0.42857142857142855
aF0.7777777777777778
aF0.6
aL7L
aL7L
ag7
aI3500
aI10
aa(lp39
F0.7777777777777778
aF0.0
aF1.0
aF0.0
aF0.7777777777777778
aF0.0
aF0.8750000000000001
aL0L
aL9L
ag7
aI3500
aI10
aa(lp40
F0.8181818181818182
aF0.0
aF0.8181818181818182
aF0.0
aF1.0
aF0.0
aF0.9
aL2L
aL9L
ag7
aI3500
aI10
aa(lp41
F0.0
aF0.0
aF0.0
aF0.0
aF0.0
aF0.0
aF0.0
aL6L
aL0L
ag7
aI3500
aI10
aaasS'overLap'
p42
(lp43
I10
aI10
aI10
aI10
aI10
aI10
as.