(dp0
S'winLen'
p1
(lp2
I1000
aI1500
aI2000
aI2500
aI3000
aI3500
asS'data'
p3
(lp4
(lp5
(lp6
F0.8064516129032258
aF0.8034188034188035
aF0.8571428571428571
aF0.9894736842105263
aF0.20689655172413793
aF0.8867924528301887
aF0.33333333333333326
aL95L
aL29L
aS'classifier'
p7
aI1000
aI10
aa(lp8
F0.4329896907216495
aF0.3956043956043956
aF1.0
aF1.0
aF0.09836065573770492
aF0.5669291338582677
aF0.1791044776119403
aL36L
aL61L
ag7
aI1000
aI10
aa(lp9
F0.896551724137931
aF1.0
aF0.0
aF0.896551724137931
aF0.0
aF0.9454545454545454
aF0.0
aL29L
aL0L
ag7
aI1000
aI10
aa(lp10
F0.6448598130841121
aF0.7962962962962963
aF0.49056603773584906
aF0.6142857142857143
aF0.7027027027027027
aF0.6935483870967742
aF0.5777777777777777
aL70L
aL37L
ag7
aI1000
aI10
aa(lp11
F0.7878787878787878
aF1.0
aF0.0
aF0.7878787878787878
aF0.0
aF0.8813559322033898
aF0.0
aL99L
aL0L
ag7
aI1000
aI10
aaa(lp12
(lp13
F0.7967479674796748
aF0.8
aF0.75
aF0.9787234042553191
aF0.20689655172413793
aF0.8803827751196172
aF0.32432432432432434
aL94L
aL29L
ag7
aI1500
aI10
aa(lp14
F0.5368421052631579
aF0.4430379746835443
aF1.0
aF1.0
aF0.26666666666666666
aF0.6140350877192983
aF0.4210526315789474
aL35L
aL60L
ag7
aI1500
aI10
aa(lp15
F0.8888888888888888
aF1.0
aF0.0
aF0.8888888888888888
aF0.0
aF0.9411764705882353
aF0.0
aL27L
aL0L
ag7
aI1500
aI10
aa(lp16
F0.6886792452830188
aF0.8461538461538461
aF0.5370370370370371
aF0.6376811594202898
aF0.7837837837837838
aF0.7272727272727273
aF0.6373626373626374
aL69L
aL37L
ag7
aI1500
aI10
aa(lp17
F0.8877551020408163
aF1.0
aF0.0
aF0.8877551020408163
aF0.0
aF0.9405405405405405
aF0.0
aL98L
aL0L
ag7
aI1500
aI10
aaa(lp18
(lp19
F0.7478991596638656
aF0.7980769230769231
aF0.4
aF0.9021739130434783
aF0.2222222222222222
aF0.8469387755102041
aF0.2857142857142857
aL92L
aL27L
ag7
aI2000
aI10
aa(lp20
F0.43956043956043955
aF0.39285714285714285
aF1.0
aF1.0
aF0.1206896551724138
aF0.5641025641025641
aF0.21538461538461542
aL33L
aL58L
ag7
aI2000
aI10
aa(lp21
F1.0
aF1.0
aF1.0
aF1.0
aL26L
ag7
aI2000
aI10
aa(lp22
F0.6407766990291263
aF0.8297872340425532
aF0.48214285714285715
aF0.5735294117647058
aF0.7714285714285715
aF0.6782608695652174
aF0.5934065934065934
aL68L
aL35L
ag7
aI2000
aI10
aa(lp23
F0.875
aF1.0
aF0.0
aF0.875
aF0.0
aF0.9333333333333333
aF0.0
aL96L
aL0L
ag7
aI2000
aI10
aaa(lp24
(lp25
F0.7478260869565218
aF0.7961165048543689
aF0.3333333333333333
aF0.9111111111111111
aF0.16
aF0.8497409326424871
aF0.21621621621621623
aL90L
aL25L
ag7
aI2500
aI10
aa(lp26
F0.375
aF0.36046511627906974
aF1.0
aF1.0
aF0.03508771929824561
aF0.5299145299145299
aF0.06779661016949151
aL31L
aL57L
ag7
aI2500
aI10
aa(lp27
F1.0
aF1.0
aF1.0
aF1.0
aL24L
ag7
aI2500
aI10
aa(lp28
F0.7
aF0.9285714285714286
aF0.5344827586206896
aF0.5909090909090909
aF0.9117647058823529
aF0.7222222222222223
aF0.6739130434782609
aL66L
aL34L
ag7
aI2500
aI10
aa(lp29
F0.9468085106382979
aF1.0
aF0.0
aF0.9468085106382979
aF0.0
aF0.9726775956284154
aF0.0
aL94L
aL0L
ag7
aI2500
aI10
aaa(lp30
(lp31
F0.7657657657657657
aF0.8229166666666666
aF0.4
aF0.8977272727272727
aF0.2608695652173913
aF0.8586956521739129
aF0.31578947368421056
aL88L
aL23L
ag7
aI3000
aI10
aa(lp32
F0.4069767441860465
aF0.37037037037037035
aF1.0
aF1.0
aF0.08928571428571429
aF0.5405405405405406
aF0.1639344262295082
aL30L
aL56L
ag7
aI3000
aI10
aa(lp33
F1.0
aF1.0
aF1.0
aF1.0
aL22L
ag7
aI3000
aI10
aa(lp34
F0.7010309278350515
aF0.9090909090909091
aF0.5283018867924528
aF0.6153846153846154
aF0.875
aF0.7339449541284404
aF0.6588235294117648
aL65L
aL32L
ag7
aI3000
aI10
aa(lp35
F0.9456521739130435
aF1.0
aF0.0
aF0.9456521739130435
aF0.0
aF0.9720670391061452
aF0.0
aL92L
aL0L
ag7
aI3000
aI10
aaa(lp36
(lp37
F0.7981651376146789
aF0.8350515463917526
aF0.5
aF0.9310344827586207
aF0.2727272727272727
aF0.8804347826086957
aF0.3529411764705882
aL87L
aL22L
ag7
aI3500
aI10
aa(lp38
F0.42168674698795183
aF0.3684210526315789
aF1.0
aF1.0
aF0.12727272727272726
aF0.5384615384615384
aF0.22580645161290322
aL28L
aL55L
ag7
aI3500
aI10
aa(lp39
F1.0
aF1.0
aF1.0
aF1.0
aL22L
ag7
aI3500
aI10
aa(lp40
F0.6808510638297872
aF0.9230769230769231
aF0.509090909090909
aF0.5714285714285714
aF0.9032258064516129
aF0.7058823529411765
aF0.6511627906976745
aL63L
aL31L
ag7
aI3500
aI10
aa(lp41
F0.9340659340659341
aF1.0
aF0.0
aF0.9340659340659341
aF0.0
aF0.9659090909090909
aF0.0
aL91L
aL0L
ag7
aI3500
aI10
aaasS'overLap'
p42
(lp43
I10
aI10
aI10
aI10
aI10
aI10
as.