(dp0
S'winLen'
p1
(lp2
I1000
aI1500
aI2000
aI2500
asS'data'
p3
(lp4
(lp5
(lp6
F0.8205128205128205
aF0.7931034482758621
aF0.9
aF0.9583333333333334
aF0.6
aF0.8679245283018867
aF0.7200000000000001
aL24L
aL15L
aS'classifier'
p7
aI1000
aI10
aa(lp8
F0.8
aF0.7222222222222222
aF0.9166666666666666
aF0.9285714285714286
aF0.6875
aF0.8125000000000001
aF0.7857142857142857
aL14L
aL16L
ag7
aI1000
aI10
aa(lp9
F0.5757575757575758
aF0.4583333333333333
aF0.8888888888888888
aF0.9166666666666666
aF0.38095238095238093
aF0.611111111111111
aF0.5333333333333333
aL12L
aL21L
ag7
aI1000
aI10
aa(lp10
F0.42857142857142855
aF1.0
aF0.0
aF0.42857142857142855
aF0.0
aF0.6
aF0.0
aL7L
aL0L
ag7
aI1000
aI10
aa(lp11
F1.0
aF1.0
aF1.0
aF1.0
aL4L
ag7
aI1000
aI10
aaa(lp12
(lp13
F0.6944444444444444
aF0.6896551724137931
aF0.7142857142857143
aF0.9090909090909091
aF0.35714285714285715
aF0.7843137254901961
aF0.4761904761904762
aL22L
aL14L
ag7
aI1500
aI10
aa(lp14
F0.75
aF0.7142857142857143
aF0.7857142857142857
aF0.7692307692307693
aF0.7333333333333333
aF0.7407407407407408
aF0.7586206896551724
aL13L
aL15L
ag7
aI1500
aI10
aa(lp15
F0.5483870967741935
aF0.44
aF1.0
aF1.0
aF0.3
aF0.6111111111111112
aF0.4615384615384615
aL11L
aL20L
ag7
aI1500
aI10
aa(lp16
F0.8
aF1.0
aF0.0
aF0.8
aF0.0
aF0.888888888888889
aF0.0
aL5L
aL0L
ag7
aI1500
aI10
aa(lp17
F0.3333333333333333
aF1.0
aF0.0
aF0.3333333333333333
aF0.0
aF0.5
aF0.0
aL3L
aL0L
ag7
aI1500
aI10
aaa(lp18
(lp19
F0.8064516129032258
aF0.85
aF0.7272727272727273
aF0.85
aF0.7272727272727273
aF0.85
aF0.7272727272727273
aL20L
aL11L
ag7
aI2000
aI10
aa(lp20
F0.92
aF0.8461538461538461
aF1.0
aF1.0
aF0.8571428571428571
aF0.9166666666666666
aF0.923076923076923
aL11L
aL14L
ag7
aI2000
aI10
aa(lp21
F0.7407407407407407
aF0.5625
aF1.0
aF1.0
aF0.6111111111111112
aF0.72
aF0.7586206896551725
aL9L
aL18L
ag7
aI2000
aI10
aa(lp22
F1.0
aF1.0
aF1.0
aF1.0
aL4L
ag7
aI2000
aI10
aa(lp23
F0.5
aF1.0
aF0.0
aF0.5
aF0.0
aF0.6666666666666666
aF0.0
aL2L
aL0L
ag7
aI2000
aI10
aaa(lp24
(lp25
F0.7142857142857143
aF0.7777777777777778
aF0.6
aF0.7777777777777778
aF0.6
aF0.7777777777777778
aF0.6
aL18L
aL10L
ag7
aI2500
aI10
aa(lp26
F0.8095238095238095
aF0.8571428571428571
aF0.7857142857142857
aF0.6666666666666666
aF0.9166666666666666
aF0.75
aF0.8461538461538461
aL9L
aL12L
ag7
aI2500
aI10
aa(lp27
F0.72
aF0.5384615384615384
aF0.9166666666666666
aF0.875
aF0.6470588235294118
aF0.6666666666666667
aF0.7586206896551724
aL8L
aL17L
ag7
aI2500
aI10
aa(lp28
F0.0
aF0.0
aF0.0
aF0.0
aF0.0
aF0.0
aF0.0
aL2L
aL0L
ag7
aI2500
aI10
aa(lp29
F0.0
aF0.0
aF0.0
aF0.0
aF0.0
aF0.0
aF0.0
aL1L
aL0L
ag7
aI2500
aI10
aaasS'overLap'
p30
(lp31
I10
aI10
aI10
aI10
as.