(dp0
S'winLen'
p1
(lp2
I1000
aI1500
aI2000
aI2500
aI3000
aI3500
aI4000
aI4500
aI5000
aI1000
aI1500
aI2000
aI2500
aI3000
aI3500
aI4000
aI4500
aI5000
aI1000
aI1500
aI2000
aI2500
aI3000
aI3500
aI4000
aI4500
aI5000
aI1000
aI1500
aI2000
aI2500
aI3000
aI3500
aI4000
aI4500
aI5000
asS'data'
p3
(lp4
(lp5
(lp6
F0.7764842840512224
aF0.7574525745257452
aF0.8925619834710744
aF0.9772727272727273
aF0.37630662020905925
aF0.8534351145038167
aF0.5294117647058824
aL572L
aL287L
aS'classifier'
p7
aI1000
aI10
aa(lp8
F0.6992574257425742
aF0.6867088607594937
aF0.7443181818181818
aF0.906054279749478
aF0.3981762917933131
aF0.7812781278127813
aF0.5188118811881188
aL479L
aL329L
ag7
aI1000
aI10
aa(lp9
F0.6193724420190996
aF0.6330275229357798
aF0.5993265993265994
aF0.6987341772151898
aF0.5266272189349113
aF0.6642599277978339
aF0.5606299212598427
aL395L
aL338L
ag7
aI1000
aI10
aa(lp10
F0.6479076479076479
aF0.6375266524520256
aF0.6696428571428571
aF0.8016085790884718
aF0.46875
aF0.7102137767220903
aF0.551470588235294
aL373L
aL320L
ag7
aI1000
aI10
aa(lp11
F0.6248534583821805
aF0.6226415094339622
aF0.628482972136223
aF0.7333333333333333
aF0.5037220843672456
aF0.673469387755102
aF0.5592286501377411
aL450L
aL403L
ag7
aI1000
aI10
aaa(lp12
(lp13
F0.7784730913642053
aF0.7657393850658858
aF0.853448275862069
aF0.9685185185185186
aF0.38223938223938225
aF0.8552739165985282
aF0.5280000000000001
aL540L
aL259L
ag7
aI1500
aI10
aa(lp14
F0.7097203728362184
aF0.7012089810017271
aF0.7383720930232558
aF0.9002217294900222
aF0.42333333333333334
aF0.7883495145631068
aF0.538135593220339
aL451L
aL300L
ag7
aI1500
aI10
aa(lp15
F0.6270430906389302
aF0.643979057591623
aF0.6048109965635738
aF0.6814404432132964
aF0.5641025641025641
aF0.6621803499327052
aF0.5837479270315091
aL361L
aL312L
ag7
aI1500
aI10
aa(lp16
F0.6502384737678856
aF0.6457831325301204
aF0.6588785046728972
aF0.7859237536656891
aF0.4895833333333333
aF0.708994708994709
aF0.5617529880478087
aL341L
aL288L
ag7
aI1500
aI10
aa(lp17
F0.6325
aF0.6187739463601533
aF0.658273381294964
aF0.7727272727272727
aF0.4790575916230366
aF0.6872340425531915
aF0.5545454545454545
aL418L
aL382L
ag7
aI1500
aI10
aaa(lp18
(lp19
F0.762619372442019
aF0.7648953301127214
aF0.75
aF0.9443339960238568
aF0.3652173913043478
aF0.8451957295373665
aF0.4912280701754385
aL503L
aL230L
ag7
aI2000
aI10
aa(lp20
F0.6901004304160688
aF0.693609022556391
aF0.6787878787878788
aF0.8744075829383886
aF0.4072727272727273
aF0.7735849056603773
aF0.5090909090909091
aL422L
aL275L
ag7
aI2000
aI10
aa(lp21
F0.6223662884927067
aF0.6482558139534884
aF0.5897435897435898
aF0.6656716417910448
aF0.5709219858156028
aF0.6568483063328424
aF0.5801801801801801
aL335L
aL282L
ag7
aI2000
aI10
aa(lp22
F0.6313932980599647
aF0.6225490196078431
aF0.6540880503144654
aF0.8220064724919094
aF0.40310077519379844
aF0.7085076708507672
aF0.49880095923261386
aL309L
aL258L
ag7
aI2000
aI10
aa(lp23
F0.6594594594594595
aF0.6403326403326404
aF0.694980694980695
aF0.7958656330749354
aF0.509915014164306
aF0.7096774193548387
aF0.5882352941176471
aL387L
aL353L
ag7
aI2000
aI10
aaa(lp24
(lp25
F0.7721139430284858
aF0.7915129151291513
aF0.688
aF0.9166666666666666
aF0.4321608040201005
aF0.8495049504950495
aF0.5308641975308641
aL468L
aL199L
ag7
aI2500
aI10
aa(lp26
F0.6782884310618067
aF0.6883910386965377
aF0.6428571428571429
aF0.8711340206185567
aF0.37037037037037035
aF0.7690557451649601
aF0.4699738903394256
aL388L
aL243L
ag7
aI2500
aI10
aa(lp27
F0.5931899641577061
aF0.6234177215189873
aF0.5537190082644629
aF0.6459016393442623
aF0.5296442687747036
aF0.6344605475040258
aF0.5414141414141413
aL305L
aL253L
ag7
aI2500
aI10
aa(lp28
F0.5949119373776908
aF0.6071428571428571
aF0.5714285714285714
aF0.7311827956989247
aF0.43103448275862066
aF0.6634146341463415
aF0.4914004914004913
aL279L
aL232L
ag7
aI2500
aI10
aa(lp29
F0.6380813953488372
aF0.6145610278372591
aF0.6877828054298643
aF0.8061797752808989
aF0.4578313253012048
aF0.6974483596597812
aF0.5497287522603979
aL356L
aL332L
ag7
aI2500
aI10
aaa(lp30
(lp31
F0.7732463295269169
aF0.802020202020202
aF0.652542372881356
aF0.906392694063927
aF0.44
aF0.8510182207931404
aF0.5255972696245734
aL438L
aL175L
ag7
aI3000
aI10
aa(lp32
F0.6837606837606838
aF0.6986607142857143
aF0.635036496350365
aF0.8622589531680441
aF0.3918918918918919
aF0.7718865598027127
aF0.4846796657381615
aL363L
aL222L
ag7
aI3000
aI10
aa(lp33
F0.5691382765531062
aF0.6107142857142858
aF0.5159817351598174
aF0.6173285198555957
aF0.509009009009009
aF0.614003590664273
aF0.5124716553287982
aL277L
aL222L
ag7
aI3000
aI10
aa(lp34
F0.6004415011037527
aF0.6134185303514377
aF0.5714285714285714
aF0.7619047619047619
aF0.39800995024875624
aF0.679646017699115
aF0.46920821114369504
aL252L
aL201L
ag7
aI3000
aI10
aa(lp35
F0.6220095693779905
aF0.6040100250626567
aF0.6535087719298246
aF0.753125
aF0.48534201954397393
aF0.6703755215577191
aF0.5570093457943924
aL320L
aL307L
ag7
aI3000
aI10
aaa(lp36
(lp37
F0.7647058823529411
aF0.8123569794050344
aF0.5967741935483871
aF0.8765432098765432
aF0.47435897435897434
aF0.8432304038004751
aF0.5285714285714286
aL405L
aL156L
ag7
aI3500
aI10
aa(lp38
F0.7032136105860114
aF0.705607476635514
aF0.693069306930693
aF0.9069069069069069
aF0.35714285714285715
aF0.7936925098554533
aF0.47138047138047134
aL333L
aL196L
ag7
aI3500
aI10
aa(lp39
F0.5711111111111111
aF0.6163265306122448
aF0.5170731707317073
aF0.604
aF0.53
aF0.61010101010101
aF0.5234567901234568
aL250L
aL200L
ag7
aI3500
aI10
aa(lp40
F0.6024691358024692
aF0.608843537414966
aF0.5855855855855856
aF0.7955555555555556
aF0.3611111111111111
aF0.6897880539499036
aF0.4467353951890034
aL225L
aL180L
ag7
aI3500
aI10
aa(lp41
F0.6196213425129088
aF0.5967302452316077
aF0.6588785046728972
aF0.75
aF0.48788927335640137
aF0.6646433990895296
aF0.5606361829025844
aL292L
aL289L
ag7
aI3500
aI10
aaa(lp42
(lp43
F0.787819253438114
aF0.8308457711442786
aF0.6261682242990654
aF0.893048128342246
aF0.4962962962962963
aF0.8608247422680412
aF0.5537190082644629
aL374L
aL135L
ag7
aI4000
aI10
aa(lp44
F0.72
aF0.7324324324324324
aF0.6761904761904762
aF0.8885245901639345
aF0.4176470588235294
aF0.802962962962963
aF0.5163636363636364
aL305L
aL170L
ag7
aI4000
aI10
aa(lp45
F0.5623471882640587
aF0.6098654708520179
aF0.5053763440860215
aF0.5964912280701754
aF0.5193370165745856
aF0.6031042128603104
aF0.5122615803814714
aL228L
aL181L
ag7
aI4000
aI10
aa(lp46
F0.6057142857142858
aF0.6147859922178989
aF0.5806451612903226
aF0.8020304568527918
aF0.35294117647058826
aF0.6960352422907489
aF0.4390243902439025
aL197L
aL153L
ag7
aI4000
aI10
aa(lp47
F0.6165413533834586
aF0.5993788819875776
aF0.6428571428571429
aF0.7201492537313433
aF0.5113636363636364
aF0.6542372881355931
aF0.569620253164557
aL268L
aL264L
ag7
aI4000
aI10
aaa(lp48
(lp49
F0.8197802197802198
aF0.8535911602209945
aF0.6881720430107527
aF0.9142011834319527
aF0.5470085470085471
aF0.8828571428571429
aF0.6095238095238096
aL338L
aL117L
ag7
aI4500
aI10
aa(lp50
F0.705607476635514
aF0.7313432835820896
aF0.6129032258064516
aF0.8718861209964412
aF0.3877551020408163
aF0.7954545454545454
aF0.4749999999999999
aL281L
aL147L
ag7
aI4500
aI10
aa(lp51
F0.575
aF0.6256684491978609
aF0.5202312138728323
aF0.585
aF0.5625
aF0.6046511627906977
aF0.5405405405405406
aL200L
aL160L
ag7
aI4500
aI10
aa(lp52
F0.6078431372549019
aF0.6261261261261262
aF0.5595238095238095
aF0.7897727272727273
aF0.36153846153846153
aF0.6984924623115578
aF0.4392523364485981
aL176L
aL130L
ag7
aI4500
aI10
aa(lp53
F0.576271186440678
aF0.5649122807017544
aF0.5935828877005348
aF0.679324894514768
aF0.4723404255319149
aF0.6168582375478928
aF0.5260663507109005
aL237L
aL235L
ag7
aI4500
aI10
aaa(lp54
(lp55
F0.8383084577114428
aF0.8693009118541033
aF0.6986301369863014
aF0.9285714285714286
aF0.5425531914893617
aF0.8979591836734694
aF0.6107784431137725
aL308L
aL94L
ag7
aI5000
aI10
aa(lp56
F0.7041884816753927
aF0.7457044673539519
aF0.5714285714285714
aF0.84765625
aF0.4126984126984127
aF0.793418647166362
aF0.4792626728110599
aL256L
aL126L
ag7
aI5000
aI10
aa(lp57
F0.5893416927899686
aF0.6551724137931034
aF0.5103448275862069
aF0.6162162162162163
aF0.5522388059701493
aF0.6350974930362117
aF0.5304659498207885
aL185L
aL134L
ag7
aI5000
aI10
aa(lp58
F0.5955056179775281
aF0.625
aF0.5074626865671642
aF0.7911392405063291
aF0.3119266055045872
aF0.6983240223463687
aF0.38636363636363635
aL158L
aL109L
ag7
aI5000
aI10
aa(lp59
F0.5981735159817352
aF0.5756457564575646
aF0.6347305389221557
aF0.7188940092165899
aF0.4796380090497738
aF0.639344262295082
aF0.5463917525773196
aL217L
aL221L
ag7
aI5000
aI10
aaa(lp60
(lp61
F0.7630331753554502
aF0.7513812154696132
aF0.8333333333333334
aF0.9645390070921985
aF0.35714285714285715
aF0.8447204968944099
aF0.5
aL282L
aL140L
ag7
aI1000
aI20
aa(lp62
F0.7073791348600509
aF0.6973684210526315
aF0.7415730337078652
aF0.902127659574468
aF0.4177215189873418
aF0.7866419294990723
aF0.5344129554655871
aL235L
aL158L
ag7
aI1000
aI20
aa(lp63
F0.6292134831460674
aF0.6330275229357798
aF0.6231884057971014
aF0.7263157894736842
aF0.5180722891566265
aF0.6764705882352942
aF0.5657894736842106
aL190L
aL166L
ag7
aI1000
aI20
aa(lp64
F0.6336336336336337
aF0.625
aF0.6534653465346535
aF0.8055555555555556
aF0.43137254901960786
aF0.7038834951456311
aF0.5196850393700788
aL180L
aL153L
ag7
aI1000
aI20
aa(lp65
F0.6506024096385542
aF0.635036496350365
aF0.6808510638297872
aF0.7945205479452054
aF0.4897959183673469
aF0.7058823529411765
aF0.56973293768546
aL219L
aL196L
ag7
aI1000
aI20
aaa(lp66
(lp67
F0.7666666666666667
aF0.757396449704142
aF0.8269230769230769
aF0.9660377358490566
aF0.344
aF0.8490878938640132
aF0.48587570621468923
aL265L
aL125L
ag7
aI1500
aI20
aa(lp68
F0.7021857923497268
aF0.6947368421052632
aF0.7283950617283951
aF0.9
aF0.4041095890410959
aF0.7841584158415842
aF0.5198237885462555
aL220L
aL146L
ag7
aI1500
aI20
aa(lp69
F0.6191950464396285
aF0.6428571428571429
aF0.5886524822695035
aF0.6685714285714286
aF0.5608108108108109
aF0.6554621848739497
aF0.5743944636678201
aL175L
aL148L
ag7
aI1500
aI20
aa(lp70
F0.63
aF0.6313131313131313
aF0.6274509803921569
aF0.7668711656441718
aF0.46715328467153283
aF0.6925207756232687
aF0.5355648535564854
aL163L
aL137L
ag7
aI1500
aI20
aa(lp71
F0.6318537859007833
aF0.6153846153846154
aF0.6666666666666666
aF0.7960199004975125
aF0.45054945054945056
aF0.6941431670281997
aF0.5377049180327869
aL201L
aL182L
ag7
aI1500
aI20
aaa(lp72
(lp73
F0.7700831024930748
aF0.7748344370860927
aF0.7457627118644068
aF0.9397590361445783
aF0.39285714285714285
aF0.8493647912885662
aF0.5146198830409358
aL249L
aL112L
ag7
aI2000
aI20
aa(lp74
F0.6852941176470588
aF0.6911196911196911
aF0.6666666666666666
aF0.8689320388349514
aF0.40298507462686567
aF0.7698924731182795
aF0.5023255813953489
aL206L
aL134L
ag7
aI2000
aI20
aa(lp75
F0.6409395973154363
aF0.6627218934911243
aF0.6124031007751938
aF0.691358024691358
aF0.5808823529411765
aF0.676737160120846
aF0.5962264150943397
aL162L
aL136L
ag7
aI2000
aI20
aa(lp76
F0.6007194244604317
aF0.6054054054054054
aF0.5913978494623656
aF0.7466666666666667
aF0.4296875
aF0.6686567164179106
aF0.4977375565610861
aL150L
aL128L
ag7
aI2000
aI20
aa(lp77
F0.6481994459833795
aF0.6194331983805668
aF0.7105263157894737
aF0.8225806451612904
aF0.46285714285714286
aF0.7066974595842956
aF0.5605536332179931
aL186L
aL175L
ag7
aI2000
aI20
aaa(lp78
(lp79
F0.7623456790123457
aF0.7931034482758621
aF0.6349206349206349
aF0.9
aF0.425531914893617
aF0.8431771894093688
aF0.5095541401273885
aL230L
aL94L
ag7
aI2500
aI20
aa(lp80
F0.6763754045307443
aF0.6877637130801688
aF0.6388888888888888
aF0.8624338624338624
aF0.38333333333333336
aF0.7652582159624414
aF0.4791666666666667
aL189L
aL120L
ag7
aI2500
aI20
aa(lp81
F0.6022304832713755
aF0.6413793103448275
aF0.5564516129032258
aF0.6283783783783784
aF0.5702479338842975
aF0.6348122866894199
aF0.5632653061224491
aL148L
aL121L
ag7
aI2500
aI20
aa(lp82
F0.5975609756097561
aF0.6035502958579881
aF0.5844155844155844
aF0.7611940298507462
aF0.4017857142857143
aF0.6732673267326733
aF0.47619047619047616
aL134L
aL112L
ag7
aI2500
aI20
aa(lp83
F0.6426426426426426
aF0.6210045662100456
aF0.6842105263157895
aF0.7906976744186046
aF0.484472049689441
aF0.6956521739130433
aF0.5672727272727272
aL172L
aL161L
ag7
aI2500
aI20
aaa(lp84
(lp85
F0.7651006711409396
aF0.7975206611570248
aF0.625
aF0.9018691588785047
aF0.4166666666666667
aF0.8464912280701755
aF0.5
aL214L
aL84L
ag7
aI3000
aI20
aa(lp86
F0.6901408450704225
aF0.7064220183486238
aF0.6363636363636364
aF0.8651685393258427
aF0.39622641509433965
aF0.7777777777777778
aF0.48837209302325585
aL178L
aL106L
ag7
aI3000
aI20
aa(lp87
F0.5975103734439834
aF0.625
aF0.5567010309278351
aF0.6766917293233082
aF0.5
aF0.6498194945848375
aF0.526829268292683
aL133L
aL108L
ag7
aI3000
aI20
aa(lp88
F0.5727272727272728
aF0.5875
aF0.5333333333333333
aF0.7704918032786885
aF0.32653061224489793
aF0.6666666666666666
aF0.40506329113924044
aL122L
aL98L
ag7
aI3000
aI20
aa(lp89
F0.6601307189542484
aF0.634020618556701
aF0.7053571428571429
aF0.7884615384615384
aF0.5266666666666666
aF0.7028571428571428
aF0.6030534351145037
aL156L
aL150L
ag7
aI3000
aI20
aaa(lp90
(lp91
F0.7636363636363637
aF0.8110599078341014
aF0.5862068965517241
aF0.88
aF0.4533333333333333
aF0.8441247002398082
aF0.5112781954887218
aL200L
aL75L
ag7
aI3500
aI20
aa(lp92
F0.6968503937007874
aF0.7093596059113301
aF0.6470588235294118
aF0.8888888888888888
aF0.358695652173913
aF0.7890410958904109
aF0.46153846153846156
aL162L
aL92L
ag7
aI3500
aI20
aa(lp93
F0.5622119815668203
aF0.5952380952380952
aF0.5164835164835165
aF0.6302521008403361
aF0.47959183673469385
aF0.6122448979591836
aF0.4973544973544974
aL119L
aL98L
ag7
aI3500
aI20
aa(lp94
F0.625
aF0.6323529411764706
aF0.6071428571428571
aF0.7962962962962963
aF0.40476190476190477
aF0.7049180327868853
aF0.4857142857142857
aL108L
aL84L
ag7
aI3500
aI20
aa(lp95
F0.6466431095406361
aF0.6145251396648045
aF0.7019230769230769
aF0.7801418439716312
aF0.5140845070422535
aF0.6874999999999999
aF0.5934959349593496
aL141L
aL142L
ag7
aI3500
aI20
aaa(lp96
(lp97
F0.8065843621399177
aF0.844559585492228
aF0.66
aF0.9055555555555556
aF0.5238095238095238
aF0.8739946380697051
aF0.584070796460177
aL180L
aL63L
ag7
aI4000
aI20
aa(lp98
F0.717391304347826
aF0.7307692307692307
aF0.6666666666666666
aF0.8926174496644296
aF0.3950617283950617
aF0.8036253776435046
aF0.49612403100775193
aL149L
aL81L
ag7
aI4000
aI20
aa(lp99
F0.5567010309278351
aF0.6090909090909091
aF0.4880952380952381
aF0.6090909090909091
aF0.4880952380952381
aF0.6090909090909091
aF0.4880952380952381
aL110L
aL84L
ag7
aI4000
aI20
aa(lp100
F0.6325301204819277
aF0.6495726495726496
aF0.5918367346938775
aF0.7916666666666666
aF0.4142857142857143
aF0.7136150234741784
aF0.48739495798319327
aL96L
aL70L
ag7
aI4000
aI20
aa(lp101
F0.5968379446640316
aF0.5806451612903226
aF0.6224489795918368
aF0.7086614173228346
aF0.48412698412698413
aF0.6382978723404256
aF0.5446428571428572
aL127L
aL126L
ag7
aI4000
aI20
aaa(lp102
(lp103
F0.8084112149532711
aF0.8579881656804734
aF0.6222222222222222
aF0.8950617283950617
aF0.5384615384615384
aF0.8761329305135952
aF0.577319587628866
aL162L
aL52L
ag7
aI4500
aI20
aa(lp104
F0.7004830917874396
aF0.7267080745341615
aF0.6086956521739131
aF0.8666666666666667
aF0.3888888888888889
aF0.7905405405405406
aF0.47457627118644075
aL135L
aL72L
ag7
aI4500
aI20
aa(lp105
F0.6242774566473989
aF0.6774193548387096
aF0.5625
aF0.6428571428571429
aF0.6
aF0.6596858638743456
aF0.5806451612903225
aL98L
aL75L
ag7
aI4500
aI20
aa(lp106
F0.6438356164383562
aF0.660377358490566
aF0.6
aF0.813953488372093
aF0.4
aF0.7291666666666667
aF0.48
aL86L
aL60L
ag7
aI4500
aI20
aa(lp107
F0.6060606060606061
aF0.581081081081081
aF0.6506024096385542
aF0.7478260869565218
aF0.46551724137931033
aF0.6539923954372623
aF0.5427135678391959
aL115L
aL116L
ag7
aI4500
aI20
aaa(lp108
(lp109
F0.7989690721649485
aF0.8580645161290322
aF0.5641025641025641
aF0.8866666666666667
aF0.5
aF0.8721311475409836
aF0.5301204819277109
aL150L
aL44L
ag7
aI5000
aI20
aa(lp110
F0.7016574585635359
aF0.7593984962406015
aF0.5416666666666666
aF0.8211382113821138
aF0.4482758620689655
aF0.7890624999999999
aF0.49056603773584906
aL123L
aL58L
ag7
aI5000
aI20
aa(lp111
F0.5909090909090909
aF0.6585365853658537
aF0.5138888888888888
aF0.6067415730337079
aF0.5692307692307692
aF0.631578947368421
aF0.5401459854014599
aL89L
aL65L
ag7
aI5000
aI20
aa(lp112
F0.6111111111111112
aF0.631578947368421
aF0.5483870967741935
aF0.8108108108108109
aF0.3269230769230769
aF0.7100591715976332
aF0.4096385542168675
aL74L
aL52L
ag7
aI5000
aI20
aa(lp113
F0.5952380952380952
aF0.5661764705882353
aF0.6486486486486487
aF0.7475728155339806
aF0.4485981308411215
aF0.6443514644351466
aF0.5303867403314917
aL103L
aL107L
ag7
aI5000
aI20
aaa(lp114
(lp115
F0.7875457875457875
aF0.7659574468085106
aF0.9210526315789473
aF0.9836065573770492
aF0.3888888888888889
aF0.8612440191387559
aF0.5468750000000001
aL183L
aL90L
ag7
aI1000
aI30
aa(lp116
F0.6782945736434108
aF0.6855670103092784
aF0.65625
aF0.8580645161290322
aF0.4077669902912621
aF0.7621776504297995
aF0.5029940119760479
aL155L
aL103L
ag7
aI1000
aI30
aa(lp117
F0.6577777777777778
aF0.6594202898550725
aF0.6551724137931034
aF0.7520661157024794
aF0.5480769230769231
aF0.7027027027027027
aF0.5968586387434556
aL121L
aL104L
ag7
aI1000
aI30
aa(lp118
F0.6221198156682027
aF0.6225165562913907
aF0.6212121212121212
aF0.7899159663865546
aF0.41836734693877553
aF0.6962962962962962
aF0.5
aL119L
aL98L
ag7
aI1000
aI30
aa(lp119
F0.6417910447761194
aF0.6325301204819277
aF0.6568627450980392
aF0.75
aF0.5234375
aF0.6862745098039217
aF0.582608695652174
aL140L
aL128L
ag7
aI1000
aI30
aaa(lp120
(lp121
F0.7579365079365079
aF0.7681159420289855
aF0.7111111111111111
aF0.9244186046511628
aF0.4
aF0.8390501319261213
aF0.512
aL172L
aL80L
ag7
aI1500
aI30
aa(lp122
F0.7046413502109705
aF0.6994535519125683
aF0.7222222222222222
aF0.8951048951048951
aF0.4148936170212766
aF0.7852760736196319
aF0.527027027027027
aL143L
aL94L
ag7
aI1500
aI30
aa(lp123
F0.6244131455399061
aF0.6384615384615384
aF0.6024096385542169
aF0.7155172413793104
aF0.5154639175257731
aF0.6747967479674797
aF0.5555555555555557
aL116L
aL97L
ag7
aI1500
aI30
aa(lp124
F0.6113989637305699
aF0.6086956521739131
aF0.6181818181818182
aF0.8
aF0.38636363636363635
aF0.6913580246913581
aF0.4755244755244755
aL105L
aL88L
ag7
aI1500
aI30
aa(lp125
F0.6338582677165354
aF0.6176470588235294
aF0.6666666666666666
aF0.7894736842105263
aF0.4628099173553719
aF0.6930693069306931
aF0.5463414634146341
aL133L
aL121L
ag7
aI1500
aI30
aaa(lp126
(lp127
F0.7807017543859649
aF0.7967914438502673
aF0.7073170731707317
aF0.9254658385093167
aF0.43283582089552236
aF0.8563218390804598
aF0.5370370370370371
aL161L
aL67L
ag7
aI2000
aI30
aa(lp128
F0.6877828054298643
aF0.695906432748538
aF0.66
aF0.875
aF0.38823529411764707
aF0.7752442996742671
aF0.4888888888888889
aL136L
aL85L
ag7
aI2000
aI30
aa(lp129
F0.5925925925925926
aF0.6238532110091743
aF0.55
aF0.6538461538461539
aF0.5176470588235295
aF0.6384976525821596
aF0.5333333333333333
aL104L
aL85L
ag7
aI2000
aI30
aa(lp130
F0.5879120879120879
aF0.5923076923076923
aF0.5769230769230769
aF0.7777777777777778
aF0.3614457831325301
aF0.6724890829694323
aF0.4444444444444444
aL99L
aL83L
ag7
aI2000
aI30
aa(lp131
F0.6271186440677966
aF0.6024844720496895
aF0.68
aF0.8016528925619835
aF0.4434782608695652
aF0.6879432624113475
aF0.5368421052631579
aL121L
aL115L
ag7
aI2000
aI30
aaa(lp132
(lp133
F0.7216981132075472
aF0.7771084337349398
aF0.5217391304347826
aF0.8543046357615894
aF0.39344262295081966
aF0.8138801261829652
aF0.4485981308411215
aL151L
aL61L
ag7
aI2500
aI30
aa(lp134
F0.698019801980198
aF0.6981132075471698
aF0.6976744186046512
aF0.8951612903225806
aF0.38461538461538464
aF0.784452296819788
aF0.49586776859504134
aL124L
aL78L
ag7
aI2500
aI30
aa(lp135
F0.6
aF0.625
aF0.5633802816901409
aF0.6770833333333334
aF0.5063291139240507
aF0.65
aF0.5333333333333333
aL96L
aL79L
ag7
aI2500
aI30
aa(lp136
F0.6129032258064516
aF0.6363636363636364
aF0.5714285714285714
aF0.7241379310344828
aF0.47058823529411764
aF0.6774193548387097
aF0.5161290322580646
aL87L
aL68L
ag7
aI2500
aI30
aa(lp137
F0.5833333333333334
aF0.567741935483871
aF0.6229508196721312
aF0.7927927927927928
aF0.3619047619047619
aF0.6616541353383458
aF0.4578313253012048
aL111L
aL105L
ag7
aI2500
aI30
aaa(lp138
(lp139
F0.7794871794871795
aF0.8181818181818182
aF0.6341463414634146
aF0.8936170212765957
aF0.48148148148148145
aF0.8542372881355933
aF0.5473684210526316
aL141L
aL54L
ag7
aI3000
aI30
aa(lp140
F0.6813186813186813
aF0.7050359712230215
aF0.6046511627906976
aF0.8521739130434782
aF0.3880597014925373
aF0.7716535433070866
aF0.4727272727272727
aL115L
aL67L
ag7
aI3000
aI30
aa(lp141
F0.5632911392405063
aF0.6
aF0.5079365079365079
aF0.6477272727272727
aF0.45714285714285713
aF0.6229508196721312
aF0.481203007518797
aL88L
aL70L
ag7
aI3000
aI30
aa(lp142
F0.5886524822695035
aF0.5980392156862745
aF0.5641025641025641
aF0.782051282051282
aF0.3492063492063492
aF0.6777777777777778
aF0.4313725490196078
aL78L
aL63L
ag7
aI3000
aI30
aa(lp143
F0.6414141414141414
aF0.6183206106870229
aF0.6865671641791045
aF0.7941176470588235
aF0.4791666666666667
aF0.6952789699570816
aF0.5644171779141104
aL102L
aL96L
ag7
aI3000
aI30
aaa(lp144
(lp145
F0.7840909090909091
aF0.8082191780821918
aF0.6666666666666666
aF0.921875
aF0.4166666666666667
aF0.8613138686131386
aF0.5128205128205129
aL128L
aL48L
ag7
aI3500
aI30
aa(lp146
F0.6951219512195121
aF0.7076923076923077
aF0.6470588235294118
aF0.8846153846153846
aF0.36666666666666664
aF0.7863247863247863
aF0.46808510638297873
aL104L
aL60L
ag7
aI3500
aI30
aa(lp147
F0.539568345323741
aF0.5853658536585366
aF0.47368421052631576
aF0.6153846153846154
aF0.4426229508196721
aF0.6
aF0.4576271186440678
aL78L
aL61L
ag7
aI3500
aI30
aa(lp148
F0.6583333333333333
aF0.6626506024096386
aF0.6486486486486487
aF0.8088235294117647
aF0.46153846153846156
aF0.7284768211920529
aF0.5393258426966292
aL68L
aL52L
ag7
aI3500
aI30
aa(lp149
F0.6067415730337079
aF0.5981308411214953
aF0.6197183098591549
aF0.7032967032967034
aF0.5057471264367817
aF0.6464646464646465
aF0.5569620253164557
aL91L
aL87L
ag7
aI3500
aI30
aaa(lp150
(lp151
F0.825
aF0.8409090909090909
aF0.75
aF0.940677966101695
aF0.5
aF0.888
aF0.6
aL118L
aL42L
ag7
aI4000
aI30
aa(lp152
F0.7266666666666667
aF0.7333333333333333
aF0.7
aF0.9072164948453608
aF0.39622641509433965
aF0.8110599078341014
aF0.5060240963855422
aL97L
aL53L
ag7
aI4000
aI30
aa(lp153
F0.5390625
aF0.5897435897435898
aF0.46
aF0.6301369863013698
aF0.41818181818181815
aF0.609271523178808
aF0.43809523809523804
aL73L
aL55L
ag7
aI4000
aI30
aa(lp154
F0.6476190476190476
aF0.6621621621621622
aF0.6129032258064516
aF0.8032786885245902
aF0.4318181818181818
aF0.725925925925926
aF0.5066666666666667
aL61L
aL44L
ag7
aI4000
aI30
aa(lp155
F0.5853658536585366
aF0.5698924731182796
aF0.6056338028169014
aF0.654320987654321
aF0.5180722891566265
aF0.6091954022988506
aF0.5584415584415584
aL81L
aL83L
ag7
aI4000
aI30
aaa(lp156
(lp157
F0.8014184397163121
aF0.8448275862068966
aF0.6
aF0.9074074074074074
aF0.45454545454545453
aF0.875
aF0.5172413793103449
aL108L
aL33L
ag7
aI4500
aI30
aa(lp158
F0.7037037037037037
aF0.7358490566037735
aF0.5862068965517241
aF0.8666666666666667
aF0.37777777777777777
aF0.7959183673469387
aF0.45945945945945943
aL90L
aL45L
ag7
aI4500
aI30
aa(lp159
F0.5925925925925926
aF0.640625
aF0.5227272727272727
aF0.6612903225806451
aF0.5
aF0.6507936507936509
aF0.5111111111111111
aL62L
aL46L
ag7
aI4500
aI30
aa(lp160
F0.6451612903225806
aF0.6615384615384615
aF0.6071428571428571
aF0.7962962962962963
aF0.4358974358974359
aF0.7226890756302522
aF0.5074626865671643
aL54L
aL39L
ag7
aI4500
aI30
aa(lp161
F0.5608108108108109
aF0.5581395348837209
aF0.5645161290322581
aF0.64
aF0.4794520547945205
aF0.5962732919254659
aF0.5185185185185185
aL75L
aL73L
ag7
aI4500
aI30
aaa(lp162
(lp163
F0.8267716535433071
aF0.8653846153846154
aF0.6521739130434783
aF0.9183673469387755
aF0.5172413793103449
aF0.8910891089108911
aF0.576923076923077
aL98L
aL29L
ag7
aI5000
aI30
aa(lp164
F0.7155172413793104
aF0.7831325301204819
aF0.5454545454545454
aF0.8125
aF0.5
aF0.7975460122699387
aF0.5217391304347826
aL80L
aL36L
ag7
aI5000
aI30
aa(lp165
F0.5714285714285714
aF0.6363636363636364
aF0.4883720930232558
aF0.6140350877192983
aF0.5121951219512195
aF0.625
aF0.5
aL57L
aL41L
ag7
aI5000
aI30
aa(lp166
F0.6
aF0.6379310344827587
aF0.5
aF0.7708333333333334
aF0.34375
aF0.69811320754717
aF0.4074074074074074
aL48L
aL32L
ag7
aI5000
aI30
aa(lp167
F0.5808823529411765
aF0.5494505494505495
aF0.6444444444444445
aF0.7575757575757576
aF0.4142857142857143
aF0.6369426751592356
aF0.5043478260869566
aL66L
aL70L
ag7
aI5000
aI30
aaa(lp168
(lp169
F0.7623762376237624
aF0.751412429378531
aF0.84
aF0.9708029197080292
aF0.3230769230769231
aF0.8471337579617835
aF0.4666666666666667
aL137L
aL65L
ag7
aI1000
aI40
aa(lp170
F0.7065217391304348
aF0.6944444444444444
aF0.75
aF0.9090909090909091
aF0.40540540540540543
aF0.7874015748031497
aF0.5263157894736842
aL110L
aL74L
ag7
aI1000
aI40
aa(lp171
F0.6369047619047619
aF0.6355140186915887
aF0.639344262295082
aF0.7555555555555555
aF0.5
aF0.6903553299492385
aF0.5611510791366907
aL90L
aL78L
ag7
aI1000
aI40
aa(lp172
F0.6305732484076433
aF0.6226415094339622
aF0.6470588235294118
aF0.7857142857142857
aF0.4520547945205479
aF0.6947368421052631
aF0.5322580645161291
aL84L
aL73L
ag7
aI1000
aI40
aa(lp173
F0.6256410256410256
aF0.6183206106870229
aF0.640625
aF0.7788461538461539
aF0.45054945054945056
aF0.6893617021276597
aF0.5290322580645163
aL104L
aL91L
ag7
aI1000
aI40
aaa(lp174
(lp175
F0.7142857142857143
aF0.7449664429530202
aF0.5757575757575758
aF0.888
aF0.3333333333333333
aF0.8102189781021898
aF0.4222222222222222
aL125L
aL57L
ag7
aI1500
aI40
aa(lp176
F0.7085714285714285
aF0.7007299270072993
aF0.7368421052631579
aF0.9056603773584906
aF0.4057971014492754
aF0.7901234567901234
aF0.5233644859813084
aL106L
aL69L
ag7
aI1500
aI40
aa(lp177
F0.6428571428571429
aF0.6666666666666666
aF0.609375
aF0.7058823529411765
aF0.5652173913043478
aF0.6857142857142857
aF0.5864661654135338
aL85L
aL69L
ag7
aI1500
aI40
aa(lp178
F0.6357142857142857
aF0.6224489795918368
aF0.6666666666666666
aF0.8133333333333334
aF0.4307692307692308
aF0.7052023121387283
aF0.5233644859813084
aL75L
aL65L
ag7
aI1500
aI40
aa(lp179
F0.625
aF0.6101694915254238
aF0.6515151515151515
aF0.7578947368421053
aF0.48314606741573035
aF0.6760563380281691
aF0.5548387096774193
aL95L
aL89L
ag7
aI1500
aI40
aaa(lp180
(lp181
F0.7514792899408284
aF0.7894736842105263
aF0.6111111111111112
aF0.8823529411764706
aF0.44
aF0.8333333333333333
aF0.5116279069767442
aL119L
aL50L
ag7
aI2000
aI40
aa(lp182
F0.70625
aF0.7073170731707317
aF0.7027027027027027
aF0.8877551020408163
aF0.41935483870967744
aF0.7873303167420814
aF0.5252525252525253
aL98L
aL62L
ag7
aI2000
aI40
aa(lp183
F0.6444444444444445
aF0.6625
aF0.6181818181818182
aF0.7162162162162162
aF0.5573770491803278
aF0.6883116883116882
aF0.5862068965517241
aL74L
aL61L
ag7
aI2000
aI40
aa(lp184
F0.5954198473282443
aF0.6111111111111112
aF0.5609756097560976
aF0.7534246575342466
aF0.39655172413793105
aF0.6748466257668713
aF0.4646464646464647
aL73L
aL58L
ag7
aI2000
aI40
aa(lp185
F0.5988372093023255
aF0.5847457627118644
aF0.6296296296296297
aF0.7752808988764045
aF0.40963855421686746
aF0.6666666666666666
aF0.49635036496350377
aL89L
aL83L
ag7
aI2000
aI40
aaa(lp186
(lp187
F0.7756410256410257
aF0.8015873015873016
aF0.6666666666666666
aF0.9099099099099099
aF0.4444444444444444
aF0.8523206751054853
aF0.5333333333333333
aL111L
aL45L
ag7
aI2500
aI40
aa(lp188
F0.6643835616438356
aF0.680672268907563
aF0.5925925925925926
aF0.8804347826086957
aF0.2962962962962963
aF0.7677725118483413
aF0.3950617283950617
aL92L
aL54L
ag7
aI2500
aI40
aa(lp189
F0.6507936507936508
aF0.6811594202898551
aF0.6140350877192983
aF0.6811594202898551
aF0.6140350877192983
aF0.6811594202898551
aF0.6140350877192983
aL69L
aL57L
ag7
aI2500
aI40
aa(lp190
F0.5701754385964912
aF0.5903614457831325
aF0.5161290322580645
aF0.765625
aF0.32
aF0.6666666666666666
aF0.3950617283950617
aL64L
aL50L
ag7
aI2500
aI40
aa(lp191
F0.5987261146496815
aF0.5892857142857143
aF0.6222222222222222
aF0.7951807228915663
aF0.3783783783783784
aF0.676923076923077
aF0.47058823529411764
aL83L
aL74L
ag7
aI2500
aI40
aaa(lp192
(lp193
F0.7847222222222222
aF0.8157894736842105
aF0.6666666666666666
aF0.9029126213592233
aF0.4878048780487805
aF0.8571428571428571
aF0.5633802816901409
aL103L
aL41L
ag7
aI3000
aI40
aa(lp194
F0.6992481203007519
aF0.7142857142857143
aF0.6428571428571429
aF0.8823529411764706
aF0.375
aF0.7894736842105262
aF0.4736842105263159
aL85L
aL48L
ag7
aI3000
aI40
aa(lp195
F0.5862068965517241
aF0.6164383561643836
aF0.5348837209302325
aF0.6923076923076923
aF0.45098039215686275
aF0.6521739130434783
aF0.48936170212765956
aL65L
aL51L
ag7
aI3000
aI40
aa(lp196
F0.6224489795918368
aF0.6338028169014085
aF0.5925925925925926
aF0.8035714285714286
aF0.38095238095238093
aF0.7086614173228347
aF0.463768115942029
aL56L
aL42L
ag7
aI3000
aI40
aa(lp197
F0.6180555555555556
aF0.5959595959595959
aF0.6666666666666666
aF0.7972972972972973
aF0.42857142857142855
aF0.6820809248554912
aF0.5217391304347826
aL74L
aL70L
ag7
aI3000
aI40
aaa(lp198
(lp199
F0.7751937984496124
aF0.8252427184466019
aF0.5769230769230769
aF0.8854166666666666
aF0.45454545454545453
aF0.8542713567839195
aF0.5084745762711863
aL96L
aL33L
ag7
aI3500
aI40
aa(lp200
F0.6967213114754098
aF0.7083333333333334
aF0.6538461538461539
aF0.8831168831168831
aF0.37777777777777777
aF0.7861271676300577
aF0.4788732394366198
aL77L
aL45L
ag7
aI3500
aI40
aa(lp201
F0.5520833333333334
aF0.6078431372549019
aF0.4888888888888889
aF0.5740740740740741
aF0.5238095238095238
aF0.5904761904761905
aF0.5057471264367817
aL54L
aL42L
ag7
aI3500
aI40
aa(lp202
F0.6744186046511628
aF0.6666666666666666
aF0.6923076923076923
aF0.8333333333333334
aF0.47368421052631576
aF0.7407407407407408
aF0.5625
aL48L
aL38L
ag7
aI3500
aI40
aa(lp203
F0.5615384615384615
aF0.5454545454545454
aF0.5849056603773585
aF0.65625
aF0.4696969696969697
aF0.5957446808510638
aF0.5210084033613445
aL64L
aL66L
ag7
aI3500
aI40
aaa(lp204
(lp205
F0.8378378378378378
aF0.8735632183908046
aF0.7083333333333334
aF0.9156626506024096
aF0.6071428571428571
aF0.8941176470588235
aF0.6538461538461539
aL83L
aL28L
ag7
aI4000
aI40
aa(lp206
F0.7247706422018348
aF0.7590361445783133
aF0.6153846153846154
aF0.863013698630137
aF0.4444444444444444
aF0.8076923076923077
aF0.5161290322580646
aL73L
aL36L
ag7
aI4000
aI40
aa(lp207
F0.6043956043956044
aF0.6590909090909091
aF0.5531914893617021
aF0.58
aF0.6341463414634146
aF0.6170212765957446
aF0.5909090909090909
aL50L
aL41L
ag7
aI4000
aI40
aa(lp208
F0.7012987012987013
aF0.6851851851851852
aF0.7391304347826086
aF0.8604651162790697
aF0.5
aF0.7628865979381443
aF0.5964912280701754
aL43L
aL34L
ag7
aI4000
aI40
aa(lp209
F0.5882352941176471
aF0.5866666666666667
aF0.5909090909090909
aF0.7096774193548387
aF0.45614035087719296
aF0.6423357664233577
aF0.5148514851485149
aL62L
aL57L
ag7
aI4000
aI40
aaa(lp210
(lp211
F0.8285714285714286
aF0.8795180722891566
aF0.6363636363636364
aF0.9012345679012346
aF0.5833333333333334
aF0.8902439024390244
aF0.6086956521739131
aL81L
aL24L
ag7
aI4500
aI40
aa(lp212
F0.7010309278350515
aF0.7466666666666667
aF0.5454545454545454
aF0.8484848484848485
aF0.3870967741935484
aF0.7943262411347518
aF0.45283018867924524
aL66L
aL31L
ag7
aI4500
aI40
aa(lp213
F0.6533333333333333
aF0.6888888888888889
aF0.6
aF0.7209302325581395
aF0.5625
aF0.7045454545454545
aF0.5806451612903225
aL43L
aL32L
ag7
aI4500
aI40
aa(lp214
F0.6470588235294118
aF0.6808510638297872
aF0.5714285714285714
aF0.7804878048780488
aF0.4444444444444444
aF0.7272727272727273
aF0.5
aL41L
aL27L
ag7
aI4500
aI40
aa(lp215
F0.5925925925925926
aF0.56
aF0.6666666666666666
aF0.7924528301886793
aF0.4
aF0.65625
aF0.5
aL53L
aL55L
ag7
aI4500
aI40
aaa(lp216
(lp217
F0.7954545454545454
aF0.8714285714285714
aF0.5
aF0.8714285714285714
aF0.5
aF0.8714285714285714
aF0.5
aL70L
aL18L
ag7
aI5000
aI40
aa(lp218
F0.6941176470588235
aF0.7384615384615385
aF0.55
aF0.8421052631578947
aF0.39285714285714285
aF0.7868852459016393
aF0.45833333333333337
aL57L
aL28L
ag7
aI5000
aI40
aa(lp219
F0.6086956521739131
aF0.675
aF0.5172413793103449
aF0.6585365853658537
aF0.5357142857142857
aF0.6666666666666667
aF0.5263157894736843
aL41L
aL28L
ag7
aI5000
aI40
aa(lp220
F0.5789473684210527
aF0.627906976744186
aF0.42857142857142855
aF0.7714285714285715
aF0.2727272727272727
aF0.6923076923076923
aF0.33333333333333326
aL35L
aL22L
ag7
aI5000
aI40
aa(lp221
F0.6
aF0.5666666666666667
aF0.65
aF0.7083333333333334
aF0.5
aF0.6296296296296297
aF0.5652173913043479
aL48L
aL52L
ag7
aI5000
aI40
aaasS'overLap'
p222
(lp223
I10
aI10
aI10
aI10
aI10
aI10
aI10
aI10
aI10
aI20
aI20
aI20
aI20
aI20
aI20
aI20
aI20
aI20
aI30
aI30
aI30
aI30
aI30
aI30
aI30
aI30
aI30
aI40
aI40
aI40
aI40
aI40
aI40
aI40
aI40
aI40
as.