(dp0
S'winLen'
p1
(lp2
I1000
aI1500
aI2000
aI2500
aI3000
aI3500
asS'data'
p3
(lp4
(lp5
(lp6
F0.8275862068965517
aF0.85
aF0.7777777777777778
aF0.8947368421052632
aF0.7
aF0.8717948717948718
aF0.7368421052631577
aL19L
aL10L
aS'classifier'
p7
aI1000
aI10
aa(lp8
F0.9285714285714286
aF1.0
aF0.8461538461538461
aF0.8823529411764706
aF1.0
aF0.9375
aF0.9166666666666666
aL17L
aL11L
ag7
aI1000
aI10
aa(lp9
F0.6727272727272727
aF0.4444444444444444
aF0.8928571428571429
aF0.8
aF0.625
aF0.5714285714285714
aF0.7352941176470589
aL15L
aL40L
ag7
aI1000
aI10
aa(lp10
F0.7727272727272727
aF0.75
aF0.8
aF0.8181818181818182
aF0.7272727272727273
aF0.7826086956521738
aF0.761904761904762
aL11L
aL11L
ag7
aI1000
aI10
aa(lp11
F0.5294117647058824
aF1.0
aF0.0
aF0.5294117647058824
aF0.0
aF0.6923076923076924
aF0.0
aL17L
aL0L
ag7
aI1000
aI10
aaa(lp12
(lp13
F1.0
aF1.0
aF1.0
aF1.0
aF1.0
aF1.0
aF1.0
aL18L
aL9L
ag7
aI1500
aI10
aa(lp14
F0.84
aF0.9230769230769231
aF0.75
aF0.8
aF0.9
aF0.8571428571428571
aF0.8181818181818182
aL15L
aL10L
ag7
aI1500
aI10
aa(lp15
F0.7058823529411765
aF0.4444444444444444
aF1.0
aF1.0
aF0.6153846153846154
aF0.6153846153846153
aF0.761904761904762
aL12L
aL39L
ag7
aI1500
aI10
aa(lp16
F0.5
aF0.5
aF0.5
aF0.6666666666666666
aF0.3333333333333333
aF0.5714285714285715
aF0.4
aL9L
aL9L
ag7
aI1500
aI10
aa(lp17
F0.6
aF1.0
aF0.0
aF0.6
aF0.0
aF0.7499999999999999
aF0.0
aL15L
aL0L
ag7
aI1500
aI10
aaa(lp18
(lp19
F0.9565217391304348
aF1.0
aF0.875
aF0.9375
aF1.0
aF0.967741935483871
aF0.9333333333333333
aL16L
aL7L
ag7
aI2000
aI10
aa(lp20
F0.9047619047619048
aF1.0
aF0.8
aF0.8461538461538461
aF1.0
aF0.9166666666666666
aF0.888888888888889
aL13L
aL8L
ag7
aI2000
aI10
aa(lp21
F0.7916666666666666
aF0.5238095238095238
aF1.0
aF1.0
aF0.7297297297297297
aF0.6875000000000001
aF0.8437499999999999
aL11L
aL37L
ag7
aI2000
aI10
aa(lp22
F0.625
aF0.6
aF0.6666666666666666
aF0.75
aF0.5
aF0.6666666666666665
aF0.5714285714285715
aL8L
aL8L
ag7
aI2000
aI10
aa(lp23
F0.7692307692307693
aF1.0
aF0.0
aF0.7692307692307693
aF0.0
aF0.8695652173913044
aF0.0
aL13L
aL0L
ag7
aI2000
aI10
aaa(lp24
(lp25
F0.5454545454545454
aF0.7142857142857143
aF0.25
aF0.625
aF0.3333333333333333
aF0.6666666666666666
aF0.28571428571428575
aL16L
aL6L
ag7
aI2500
aI10
aa(lp26
F0.7222222222222222
aF0.875
aF0.6
aF0.6363636363636364
aF0.8571428571428571
aF0.7368421052631579
aF0.7058823529411764
aL11L
aL7L
ag7
aI2500
aI10
aa(lp27
F0.41304347826086957
aF0.25
aF1.0
aF1.0
aF0.2702702702702703
aF0.4
aF0.4255319148936171
aL9L
aL37L
ag7
aI2500
aI10
aa(lp28
F0.6428571428571429
aF0.6666666666666666
aF0.625
aF0.5714285714285714
aF0.7142857142857143
aF0.6153846153846153
aF0.6666666666666666
aL7L
aL7L
ag7
aI2500
aI10
aa(lp29
F0.5
aF1.0
aF0.0
aF0.5
aF0.0
aF0.6666666666666666
aF0.0
aL12L
aL0L
ag7
aI2500
aI10
aaa(lp30
(lp31
F0.5238095238095238
aF0.6875
aF0.0
aF0.6875
aF0.0
aF0.6875
aF0.0
aL16L
aL5L
ag7
aI3000
aI10
aa(lp32
F0.75
aF0.875
aF0.625
aF0.7
aF0.8333333333333334
aF0.7777777777777777
aF0.7142857142857143
aL10L
aL6L
ag7
aI3000
aI10
aa(lp33
F0.391304347826087
aF0.24324324324324326
aF1.0
aF1.0
aF0.24324324324324326
aF0.391304347826087
aF0.391304347826087
aL9L
aL37L
ag7
aI3000
aI10
aa(lp34
F0.75
aF1.0
aF0.625
aF0.5714285714285714
aF1.0
aF0.7272727272727273
aF0.7692307692307693
aL7L
aL5L
ag7
aI3000
aI10
aa(lp35
F0.6363636363636364
aF1.0
aF0.0
aF0.6363636363636364
aF0.0
aF0.7777777777777778
aF0.0
aL11L
aL0L
ag7
aI3000
aI10
aaa(lp36
(lp37
F0.7777777777777778
aF0.9166666666666666
aF0.5
aF0.7857142857142857
aF0.75
aF0.8461538461538461
aF0.6
aL14L
aL4L
ag7
aI3500
aI10
aa(lp38
F0.8333333333333334
aF1.0
aF0.6666666666666666
aF0.75
aF1.0
aF0.8571428571428571
aF0.8
aL8L
aL4L
ag7
aI3500
aI10
aa(lp39
F0.627906976744186
aF0.3333333333333333
aF1.0
aF1.0
aF0.5428571428571428
aF0.5
aF0.7037037037037037
aL8L
aL35L
ag7
aI3500
aI10
aa(lp40
F0.9
aF0.8333333333333334
aF1.0
aF1.0
aF0.8
aF0.9090909090909091
aF0.888888888888889
aL5L
aL5L
ag7
aI3500
aI10
aa(lp41
F0.4444444444444444
aF1.0
aF0.0
aF0.4444444444444444
aF0.0
aF0.6153846153846153
aF0.0
aL9L
aL0L
ag7
aI3500
aI10
aaasS'overLap'
p42
(lp43
I10
aI10
aI10
aI10
aI10
aI10
as.