(dp0
S'winLen'
p1
(lp2
I5000
asS'data'
p3
(lp4
(lp5
(lp6
F0.8855721393034826
aF0.8945783132530121
aF0.8428571428571429
aF0.9642857142857143
aF0.6276595744680851
aF0.928125
aF0.7195121951219512
aL308L
aL94L
aS'classifier'
p7
aI5000
aI10
aa(lp8
F0.8010471204188482
aF0.8082191780821918
aF0.7777777777777778
aF0.921875
aF0.5555555555555556
aF0.8613138686131386
aF0.6481481481481481
aL256L
aL126L
ag7
aI5000
aI10
aa(lp9
F0.9184952978056427
aF0.9649122807017544
aF0.8648648648648649
aF0.8918918918918919
aF0.9552238805970149
aF0.9269662921348314
aF0.9078014184397162
aL185L
aL134L
ag7
aI5000
aI10
aa(lp10
F0.9026217228464419
aF0.9285714285714286
aF0.8672566371681416
aF0.9050632911392406
aF0.8990825688073395
aF0.9166666666666666
aF0.8828828828828829
aL158L
aL109L
ag7
aI5000
aI10
aa(lp11
F0.817351598173516
aF0.9659863945578231
aF0.7422680412371134
aF0.6543778801843319
aF0.9773755656108597
aF0.7802197802197803
aF0.8437499999999999
aL217L
aL221L
ag7
aI5000
aI10
aaasS'overLap'
p12
(lp13
I10
as.