(dp0
S'winLen'
p1
(lp2
I5000
asS'data'
p3
(lp4
(lp5
(lp6
F0.8930348258706468
aF0.8774928774928775
aF1.0
aF1.0
aF0.5425531914893617
aF0.9347496206373292
aF0.7034482758620689
aL308L
aL94L
aS'classifier'
p7
aI5000
aI10
aa(lp8
F0.837696335078534
aF0.8233333333333334
aF0.8902439024390244
aF0.96484375
aF0.5793650793650794
aF0.8884892086330937
aF0.701923076923077
aL256L
aL126L
ag7
aI5000
aI10
aa(lp9
F0.9059561128526645
aF0.9532163742690059
aF0.8513513513513513
aF0.8810810810810811
aF0.9402985074626866
aF0.9157303370786517
aF0.8936170212765957
aL185L
aL134L
ag7
aI5000
aI10
aa(lp10
F0.8389513108614233
aF0.8662420382165605
aF0.8
aF0.8607594936708861
aF0.8073394495412844
aF0.8634920634920635
aF0.8036529680365296
aL158L
aL109L
ag7
aI5000
aI10
aa(lp11
F0.730593607305936
aF0.7928994082840237
aF0.6914498141263941
aF0.6175115207373272
aF0.8416289592760181
aF0.694300518134715
aF0.7591836734693878
aL217L
aL221L
ag7
aI5000
aI10
aaasS'overLap'
p12
(lp13
I10
as.