(dp0
S'winLen'
p1
(lp2
I5000
aI5500
aI6000
aI6500
aI7000
aI7500
aI8000
aI8500
aI9000
aI9500
aI10000
asS'data'
p3
(lp4
(lp5
(lp6
F0.8781094527363185
aF0.9059561128526645
aF0.7710843373493976
aF0.9383116883116883
aF0.6808510638297872
aF0.9218500797448166
aF0.7231638418079096
aL308L
aL94L
aS'classifier'
p7
aI5000
aI10
aa(lp8
F0.7539267015706806
aF0.7579617834394905
aF0.7352941176470589
aF0.9296875
aF0.3968253968253968
aF0.8350877192982457
aF0.5154639175257733
aL256L
aL126L
ag7
aI5000
aI10
aa(lp9
F0.7711598746081505
aF0.8043478260869565
aF0.725925925925926
aF0.8
aF0.7313432835820896
aF0.8021680216802168
aF0.7286245353159853
aL185L
aL134L
ag7
aI5000
aI10
aa(lp10
F0.8876404494382022
aF0.9266666666666666
aF0.8376068376068376
aF0.879746835443038
aF0.8990825688073395
aF0.9025974025974027
aF0.8672566371681416
aL158L
aL109L
ag7
aI5000
aI10
aa(lp11
F0.7214611872146118
aF0.7486910994764397
aF0.7004048582995951
aF0.6589861751152074
aF0.7828054298642534
aF0.7009803921568627
aF0.7393162393162394
aL217L
aL221L
ag7
aI5000
aI10
aaa(lp12
(lp13
F0.8555555555555555
aF0.8945578231292517
aF0.6818181818181818
aF0.926056338028169
aF0.5921052631578947
aF0.9100346020761245
aF0.6338028169014085
aL284L
aL76L
ag7
aI5500
aI10
aa(lp14
F0.7807017543859649
aF0.7805755395683454
aF0.78125
aF0.9393939393939394
aF0.45045045045045046
aF0.8526522593320236
aF0.5714285714285714
aL231L
aL111L
ag7
aI5500
aI10
aa(lp15
F0.7383512544802867
aF0.7924528301886793
aF0.6666666666666666
aF0.7590361445783133
aF0.7079646017699115
aF0.7753846153846154
aF0.6866952789699571
aL166L
aL113L
ag7
aI5500
aI10
aa(lp16
F0.8448275862068966
aF0.9274193548387096
aF0.75
aF0.8098591549295775
aF0.9
aF0.8646616541353385
aF0.8181818181818182
aL142L
aL90L
ag7
aI5500
aI10
aa(lp17
F0.7568922305764411
aF0.7974683544303798
aF0.7302904564315352
aF0.6596858638743456
aF0.8461538461538461
aF0.7220630372492837
aF0.7839643652561247
aL191L
aL208L
ag7
aI5500
aI10
aaa(lp18
(lp19
F0.9102167182662538
aF0.92
aF0.8541666666666666
aF0.9730769230769231
aF0.6507936507936508
aF0.9457943925233645
aF0.7387387387387387
aL260L
aL63L
ag7
aI6000
aI10
aa(lp20
F0.743421052631579
aF0.7670682730923695
aF0.6363636363636364
aF0.9052132701421801
aF0.3763440860215054
aF0.8304347826086955
aF0.4729729729729729
aL211L
aL93L
ag7
aI6000
aI10
aa(lp21
F0.792
aF0.8976377952755905
aF0.6829268292682927
aF0.7450980392156863
aF0.865979381443299
aF0.8142857142857142
aF0.7636363636363637
aL153L
aL97L
ag7
aI6000
aI10
aa(lp22
F0.8669950738916257
aF0.9327731092436975
aF0.7738095238095238
aF0.8538461538461538
aF0.8904109589041096
aF0.891566265060241
aF0.8280254777070064
aL130L
aL73L
ag7
aI6000
aI10
aa(lp23
F0.6811989100817438
aF0.6443298969072165
aF0.7225433526011561
aF0.7225433526011561
aF0.6443298969072165
aF0.6811989100817439
aF0.6811989100817439
aL173L
aL194L
ag7
aI6000
aI10
aaa(lp24
(lp25
F0.926829268292683
aF0.941908713692946
aF0.8478260869565217
aF0.9700854700854701
aF0.7358490566037735
aF0.9557894736842105
aF0.7878787878787878
aL234L
aL53L
ag7
aI6500
aI10
aa(lp26
F0.72
aF0.7677725118483413
aF0.5625
aF0.8526315789473684
aF0.4235294117647059
aF0.8079800498753116
aF0.4832214765100671
aL190L
aL85L
ag7
aI6500
aI10
aa(lp27
F0.7142857142857143
aF0.8468468468468469
aF0.584070796460177
aF0.6666666666666666
aF0.7951807228915663
aF0.7460317460317459
aF0.673469387755102
aL141L
aL83L
ag7
aI6500
aI10
aa(lp28
F0.88268156424581
aF0.9363636363636364
aF0.7971014492753623
aF0.8803418803418803
aF0.8870967741935484
aF0.9074889867841409
aF0.8396946564885496
aL117L
aL62L
ag7
aI6500
aI10
aa(lp29
F0.6932153392330384
aF0.6477272727272727
aF0.7423312883435583
aF0.7307692307692307
aF0.6612021857923497
aF0.6867469879518072
aF0.6994219653179191
aL156L
aL183L
ag7
aI6500
aI10
aaa(lp30
(lp31
F0.879245283018868
aF0.9140271493212669
aF0.7045454545454546
aF0.9395348837209302
aF0.62
aF0.9266055045871558
aF0.6595744680851063
aL215L
aL50L
ag7
aI7000
aI10
aa(lp32
F0.714859437751004
aF0.7616580310880829
aF0.5535714285714286
aF0.8546511627906976
aF0.4025974025974026
aF0.8054794520547945
aF0.46616541353383456
aL172L
aL77L
ag7
aI7000
aI10
aa(lp33
F0.7578947368421053
aF0.8188976377952756
aF0.6349206349206349
aF0.8188976377952756
aF0.6349206349206349
aF0.8188976377952756
aF0.6349206349206349
aL127L
aL63L
ag7
aI7000
aI10
aa(lp34
F0.8819875776397516
aF0.941747572815534
aF0.7758620689655172
aF0.8818181818181818
aF0.8823529411764706
aF0.9107981220657277
aF0.8256880733944953
aL110L
aL51L
ag7
aI7000
aI10
aa(lp35
F0.6896551724137931
aF0.6277777777777778
aF0.7697841726618705
aF0.7793103448275862
aF0.6149425287356322
aF0.6953846153846154
aF0.6837060702875399
aL145L
aL174L
ag7
aI7000
aI10
aaa(lp36
(lp37
F0.9132231404958677
aF0.9494949494949495
aF0.75
aF0.9447236180904522
aF0.7674418604651163
aF0.947103274559194
aF0.7586206896551724
aL199L
aL43L
ag7
aI7500
aI10
aa(lp38
F0.7035398230088495
aF0.7771084337349398
aF0.5
aF0.8113207547169812
aF0.44776119402985076
aF0.7938461538461539
aF0.4724409448818898
aL159L
aL67L
ag7
aI7500
aI10
aa(lp39
F0.8875739644970414
aF0.9626168224299065
aF0.7580645161290323
aF0.8728813559322034
aF0.9215686274509803
aF0.9155555555555556
aF0.831858407079646
aL118L
aL51L
ag7
aI7500
aI10
aa(lp40
F0.9054054054054054
aF0.95
aF0.8125
aF0.9134615384615384
aF0.8863636363636364
aF0.9313725490196078
aF0.8478260869565218
aL104L
aL44L
ag7
aI7500
aI10
aa(lp41
F0.756578947368421
aF0.7123287671232876
aF0.7974683544303798
aF0.7647058823529411
aF0.75
aF0.7375886524822695
aF0.7730061349693252
aL136L
aL168L
ag7
aI7500
aI10
aaa(lp42
(lp43
F0.8794642857142857
aF0.9247311827956989
aF0.6578947368421053
aF0.9297297297297298
aF0.6410256410256411
aF0.9272237196765499
aF0.6493506493506495
aL185L
aL39L
ag7
aI8000
aI10
aa(lp44
F0.7644230769230769
aF0.8333333333333334
aF0.609375
aF0.8275862068965517
aF0.6190476190476191
aF0.8304498269896194
aF0.6141732283464567
aL145L
aL63L
ag7
aI8000
aI10
aa(lp45
F0.7171052631578947
aF0.8666666666666667
aF0.5
aF0.7155963302752294
aF0.7209302325581395
aF0.7839195979899497
aF0.5904761904761905
aL109L
aL43L
ag7
aI8000
aI10
aa(lp46
F0.8405797101449275
aF0.9418604651162791
aF0.6730769230769231
aF0.826530612244898
aF0.875
aF0.8804347826086957
aF0.7608695652173914
aL98L
aL40L
ag7
aI8000
aI10
aa(lp47
F0.6722972972972973
aF0.6
aF0.7768595041322314
aF0.7954545454545454
aF0.573170731707317
aF0.6840390879478827
aF0.6596491228070175
aL132L
aL164L
ag7
aI8000
aI10
aaa(lp48
(lp49
F0.8476190476190476
aF0.898876404494382
aF0.5625
aF0.9195402298850575
aF0.5
aF0.9090909090909091
aF0.5294117647058824
aL174L
aL36L
ag7
aI8500
aI10
aa(lp50
F0.726775956284153
aF0.7985611510791367
aF0.5
aF0.8345864661654135
aF0.44
aF0.8161764705882353
aF0.46808510638297873
aL133L
aL50L
ag7
aI8500
aI10
aa(lp51
F0.6453900709219859
aF0.8591549295774648
aF0.42857142857142855
aF0.6039603960396039
aF0.75
aF0.7093023255813954
aF0.5454545454545454
aL101L
aL40L
ag7
aI8500
aI10
aa(lp52
F0.8174603174603174
aF0.948051948051948
aF0.6122448979591837
aF0.7934782608695652
aF0.8823529411764706
aF0.863905325443787
aF0.7228915662650602
aL92L
aL34L
ag7
aI8500
aI10
aa(lp53
F0.7411347517730497
aF0.6709677419354839
aF0.8267716535433071
aF0.8253968253968254
aF0.6730769230769231
aF0.7402135231316725
aF0.7420494699646643
aL126L
aL156L
ag7
aI8500
aI10
aaa(lp54
(lp55
F0.8769230769230769
aF0.8971428571428571
aF0.7
aF0.9631901840490797
aF0.4375
aF0.9289940828402367
aF0.5384615384615384
aL163L
aL32L
ag7
aI9000
aI10
aa(lp56
F0.7469879518072289
aF0.8062015503875969
aF0.5405405405405406
aF0.859504132231405
aF0.4444444444444444
aF0.8320000000000001
aF0.4878048780487805
aL121L
aL45L
ag7
aI9000
aI10
aa(lp57
F0.6287878787878788
aF0.8333333333333334
aF0.42424242424242425
aF0.5913978494623656
aF0.717948717948718
aF0.6918238993710693
aF0.5333333333333333
aL93L
aL39L
ag7
aI9000
aI10
aa(lp58
F0.9145299145299145
aF0.963855421686747
aF0.7941176470588235
aF0.9195402298850575
aF0.9
aF0.9411764705882354
aF0.84375
aL87L
aL30L
ag7
aI9000
aI10
aa(lp59
F0.7444444444444445
aF0.6811594202898551
aF0.8106060606060606
aF0.7899159663865546
aF0.7086092715231788
aF0.7315175097276265
aF0.7561837455830389
aL119L
aL151L
ag7
aI9000
aI10
aaa(lp60
(lp61
F0.9293478260869565
aF0.9329268292682927
aF0.9
aF0.9870967741935484
aF0.6206896551724138
aF0.9592476489028213
aF0.7346938775510204
aL155L
aL29L
ag7
aI9500
aI10
aa(lp62
F0.7449664429530202
aF0.8053097345132744
aF0.5555555555555556
aF0.8504672897196262
aF0.47619047619047616
aF0.8272727272727272
aF0.5128205128205129
aL107L
aL42L
ag7
aI9500
aI10
aa(lp63
F0.5454545454545454
aF0.7924528301886793
aF0.35294117647058826
aF0.4883720930232558
aF0.6857142857142857
aF0.60431654676259
aF0.46601941747572817
aL86L
aL35L
ag7
aI9500
aI10
aa(lp64
F0.9174311926605505
aF0.974025974025974
aF0.78125
aF0.9146341463414634
aF0.9259259259259259
aF0.9433962264150942
aF0.847457627118644
aL82L
aL27L
ag7
aI9500
aI10
aa(lp65
F0.72265625
aF0.6564885496183206
aF0.792
aF0.7678571428571429
aF0.6875
aF0.7078189300411524
aF0.7360594795539033
aL112L
aL144L
ag7
aI9500
aI10
aaa(lp66
(lp67
F0.9069767441860465
aF0.9333333333333333
aF0.7272727272727273
aF0.958904109589041
aF0.6153846153846154
aF0.9459459459459458
aF0.6666666666666667
aL146L
aL26L
ag7
aI10000
aI10
aa(lp68
F0.7593984962406015
aF0.8315789473684211
aF0.5789473684210527
aF0.8315789473684211
aF0.5789473684210527
aF0.8315789473684211
aF0.5789473684210527
aL95L
aL38L
ag7
aI10000
aI10
aa(lp69
F0.5727272727272728
aF0.82
aF0.36666666666666664
aF0.5189873417721519
aF0.7096774193548387
aF0.6356589147286822
aF0.48351648351648346
aL79L
aL31L
ag7
aI10000
aI10
aa(lp70
F0.9509803921568627
aF0.9868421052631579
aF0.8461538461538461
aF0.9493670886075949
aF0.9565217391304348
aF0.967741935483871
aF0.8979591836734695
aL79L
aL23L
ag7
aI10000
aI10
aa(lp71
F0.8306451612903226
aF0.84375
aF0.8223684210526315
aF0.75
aF0.8928571428571429
aF0.7941176470588235
aF0.8561643835616439
aL108L
aL140L
ag7
aI10000
aI10
aaasS'overLap'
p72
(lp73
I10
aI10
aI10
aI10
aI10
aI10
aI10
aI10
aI10
aI10
aI10
as.